
object-files/ca81b3637afdb6b5-looprestoration.o:	file format mach-o arm64

Disassembly of section __TEXT,__text:

0000000000000000 <wiener_filter7_8bpc_neon>:
       0: a9bf7bfd     	stp	x29, x30, [sp, #-16]!
       4: 910003fd     	mov	x29, sp
       8: 4c40a4c0     	ld1.8h	{ v0, v1 }, [x6]
       c: 721e00ff     	tst	w7, #0x4
      10: d14007ff     	sub	sp, sp, #1, lsl #12     ; =4096
      14: d10803ff     	sub	sp, sp, #512
      18: 5287ff91     	mov	w17, #16380
      1c: 4e020e3e     	dup.8h	v30, w17
      20: 4f00a51f     	movi.8h	v31, #8, lsl #8
      24: 910003ee     	mov	x14, sp
      28: 540005e0     	b.eq	0xe4 <wiener_filter7_8bpc_neon+0xe4>
      2c: aa0203f0     	mov	x16, x2
      30: d2800002     	mov	x2, #0
      34: 9400004e     	bl	0x16c <wiener_filter7_h_8bpc_neon>
      38: 8b010063     	add	x3, x3, x1
      3c: aa0e03e9     	mov	x9, x14
      40: aa0e03ea     	mov	x10, x14
      44: 910c01ce     	add	x14, x14, #768
      48: 94000049     	bl	0x16c <wiener_filter7_h_8bpc_neon>
      4c: 8b010863     	add	x3, x3, x1, lsl #2
      50: 8b010063     	add	x3, x3, x1
      54: aa0e03eb     	mov	x11, x14
      58: 910c01ce     	add	x14, x14, #768
      5c: aa1003e2     	mov	x2, x16
      60: aa0303f0     	mov	x16, x3
      64: aa0003e3     	mov	x3, x0
      68: 94000041     	bl	0x16c <wiener_filter7_h_8bpc_neon>
      6c: 710004a5     	subs	w5, w5, #1
      70: aa0e03ec     	mov	x12, x14
      74: aa0e03ed     	mov	x13, x14
      78: 540002e0     	b.eq	0xd4 <wiener_filter7_8bpc_neon+0xd4>
      7c: 8b010063     	add	x3, x3, x1
      80: 910c01ce     	add	x14, x14, #768
      84: 9400003a     	bl	0x16c <wiener_filter7_h_8bpc_neon>
      88: aa0e03ed     	mov	x13, x14
      8c: 710004a5     	subs	w5, w5, #1
      90: 540006a0     	b.eq	0x164 <wiener_filter7_8bpc_neon+0x164>
      94: 8b010063     	add	x3, x3, x1
      98: 910c01ce     	add	x14, x14, #768
      9c: 94000034     	bl	0x16c <wiener_filter7_h_8bpc_neon>
      a0: 710004a5     	subs	w5, w5, #1
      a4: 540005e0     	b.eq	0x160 <wiener_filter7_8bpc_neon+0x160>
      a8: 8b010063     	add	x3, x3, x1
      ac: 910c01cf     	add	x15, x14, #768
      b0: 940000b3     	bl	0x37c <wiener_filter7_hv_8bpc_neon>
      b4: 710004a5     	subs	w5, w5, #1
      b8: 54ffffc1     	b.ne	0xb0 <wiener_filter7_8bpc_neon+0xb0>
      bc: 721d00ff     	tst	w7, #0x8
      c0: 54000500     	b.eq	0x160 <wiener_filter7_8bpc_neon+0x160>
      c4: aa1003e3     	mov	x3, x16
      c8: d2800002     	mov	x2, #0
      cc: 940000ac     	bl	0x37c <wiener_filter7_hv_8bpc_neon>
      d0: 940000ab     	bl	0x37c <wiener_filter7_hv_8bpc_neon>
      d4: 9400007b     	bl	0x2c0 <wiener_filter7_v_8bpc_neon>
      d8: 910003bf     	mov	sp, x29
      dc: a8c17bfd     	ldp	x29, x30, [sp], #16
      e0: d65f03c0     	ret
      e4: 8b010863     	add	x3, x3, x1, lsl #2
      e8: 8b010470     	add	x16, x3, x1, lsl #1
      ec: aa0003e3     	mov	x3, x0
      f0: 9400001f     	bl	0x16c <wiener_filter7_h_8bpc_neon>
      f4: 710004a5     	subs	w5, w5, #1
      f8: aa0e03e9     	mov	x9, x14
      fc: aa0e03ea     	mov	x10, x14
     100: aa0e03eb     	mov	x11, x14
     104: aa0e03ec     	mov	x12, x14
     108: aa0e03ed     	mov	x13, x14
     10c: 54fffe40     	b.eq	0xd4 <wiener_filter7_8bpc_neon+0xd4>
     110: 8b010063     	add	x3, x3, x1
     114: 910c01ce     	add	x14, x14, #768
     118: 94000015     	bl	0x16c <wiener_filter7_h_8bpc_neon>
     11c: 710004a5     	subs	w5, w5, #1
     120: aa0e03ed     	mov	x13, x14
     124: 54000200     	b.eq	0x164 <wiener_filter7_8bpc_neon+0x164>
     128: 8b010063     	add	x3, x3, x1
     12c: 910c01ce     	add	x14, x14, #768
     130: 9400000f     	bl	0x16c <wiener_filter7_h_8bpc_neon>
     134: 710004a5     	subs	w5, w5, #1
     138: 54000140     	b.eq	0x160 <wiener_filter7_8bpc_neon+0x160>
     13c: 8b010063     	add	x3, x3, x1
     140: 910c01cf     	add	x15, x14, #768
     144: 9400008e     	bl	0x37c <wiener_filter7_hv_8bpc_neon>
     148: 710004a5     	subs	w5, w5, #1
     14c: 540000a0     	b.eq	0x160 <wiener_filter7_8bpc_neon+0x160>
     150: 913001ef     	add	x15, x15, #3072
     154: 9400008a     	bl	0x37c <wiener_filter7_hv_8bpc_neon>
     158: 710004a5     	subs	w5, w5, #1
     15c: 54fffa81     	b.ne	0xac <wiener_filter7_8bpc_neon+0xac>
     160: 94000058     	bl	0x2c0 <wiener_filter7_v_8bpc_neon>
     164: 94000057     	bl	0x2c0 <wiener_filter7_v_8bpc_neon>
     168: 17ffffdb     	b	0xd4 <wiener_filter7_8bpc_neon+0xd4>

000000000000016c <wiener_filter7_h_8bpc_neon>:
     16c: a9be13e3     	stp	x3, x4, [sp, #-32]!
     170: f9000bee     	str	x14, [sp, #16]
     174: 720000ff     	tst	w7, #0x1
     178: 54000140     	b.eq	0x1a0 <wiener_filter7_h_8bpc_neon+0x34>
     17c: b5000082     	cbnz	x2, 0x18c <wiener_filter7_h_8bpc_neon+0x20>
     180: d1000c63     	sub	x3, x3, #3
     184: 4cdf7063     	ld1.16b	{ v3 }, [x3], #16
     188: 1400000a     	b	0x1b0 <wiener_filter7_h_8bpc_neon+0x44>
     18c: 4cdf7063     	ld1.16b	{ v3 }, [x3], #16
     190: 4ddf9042     	ld1.s	{ v2 }[3], [x2], #4
     194: d1000c63     	sub	x3, x3, #3
     198: 6e036843     	ext.16b	v3, v2, v3, #13
     19c: 14000005     	b	0x1b0 <wiener_filter7_h_8bpc_neon+0x44>
     1a0: 4cdf7063     	ld1.16b	{ v3 }, [x3], #16
     1a4: 4e010462     	dup.16b	v2, v3[0]
     1a8: d1000c63     	sub	x3, x3, #3
     1ac: 6e036843     	ext.16b	v3, v2, v3, #13
     1b0: 0cdf7064     	ld1.8b	{ v4 }, [x3], #8
     1b4: 2f08a462     	ushll.8h	v2, v3, #0
     1b8: 6f08a463     	ushll2.8h	v3, v3, #0
     1bc: 2f08a484     	ushll.8h	v4, v4, #0
     1c0: 721f00ff     	tst	w7, #0x2
     1c4: 540001c1     	b.ne	0x1fc <wiener_filter7_h_8bpc_neon+0x90>
     1c8: 71004c9f     	cmp	w4, #19
     1cc: 5400018a     	b.ge	0x1fc <wiener_filter7_h_8bpc_neon+0x90>
     1d0: 51005891     	sub	w17, w4, #22
     1d4: 90000006     	adrp	x6, 0x0 <wiener_filter7_h_8bpc_neon+0x68>
     1d8: 910000c6     	add	x6, x6, #0
     1dc: d10018c6     	sub	x6, x6, #6
     1e0: 3c71c87c     	ldr	b28, [x3, w17, sxtw]
     1e4: cb2444c6     	sub	x6, x6, w4, uxtw #1
     1e8: 4e02079c     	dup.8h	v28, v28[0]
     1ec: 4c4060d9     	ld1.16b	{ v25, v26, v27 }, [x6]
     1f0: 6eb91f82     	bit.16b	v2, v28, v25
     1f4: 6eba1f83     	bit.16b	v3, v28, v26
     1f8: 6ebb1f84     	bit.16b	v4, v28, v27
     1fc: 6e032051     	ext.16b	v17, v2, v3, #4
     200: 6e034053     	ext.16b	v19, v2, v3, #8
     204: 6e031050     	ext.16b	v16, v2, v3, #2
     208: 6e035054     	ext.16b	v20, v2, v3, #10
     20c: 6e036055     	ext.16b	v21, v2, v3, #12
     210: 6e033052     	ext.16b	v18, v2, v3, #6
     214: 4e718673     	add.8h	v19, v19, v17
     218: 4e708694     	add.8h	v20, v20, v16
     21c: 4e6286b5     	add.8h	v21, v21, v2
     220: 4f175656     	shl.8h	v22, v18, #7
     224: 4f708246     	mul.8h	v6, v18, v0[3]
     228: 6f400a66     	mla.8h	v6, v19, v0[4]
     22c: 6f500a86     	mla.8h	v6, v20, v0[5]
     230: 6f600aa6     	mla.8h	v6, v21, v0[6]
     234: 6e042071     	ext.16b	v17, v3, v4, #4
     238: 6e044073     	ext.16b	v19, v3, v4, #8
     23c: 6e041070     	ext.16b	v16, v3, v4, #2
     240: 6e045074     	ext.16b	v20, v3, v4, #10
     244: 6e046075     	ext.16b	v21, v3, v4, #12
     248: 6e043072     	ext.16b	v18, v3, v4, #6
     24c: 4e718673     	add.8h	v19, v19, v17
     250: 4e708694     	add.8h	v20, v20, v16
     254: 4e6386b5     	add.8h	v21, v21, v3
     258: 4f175657     	shl.8h	v23, v18, #7
     25c: 4f708247     	mul.8h	v7, v18, v0[3]
     260: 6f400a67     	mla.8h	v7, v19, v0[4]
     264: 6f500a87     	mla.8h	v7, v20, v0[5]
     268: 6f600aa7     	mla.8h	v7, v21, v0[6]
     26c: 6e7e86d6     	sub.8h	v22, v22, v30
     270: 6e7e86f7     	sub.8h	v23, v23, v30
     274: 4e760cc6     	sqadd.8h	v6, v6, v22
     278: 4e770ce7     	sqadd.8h	v7, v7, v23
     27c: 4f1d04c6     	sshr.8h	v6, v6, #3
     280: 4f1d04e7     	sshr.8h	v7, v7, #3
     284: 4e7f84c6     	add.8h	v6, v6, v31
     288: 4e7f84e7     	add.8h	v7, v7, v31
     28c: 71004084     	subs	w4, w4, #16
     290: 4c9fa5c6     	st1.8h	{ v6, v7 }, [x14], #32
     294: 5400010d     	b.le	0x2b4 <wiener_filter7_h_8bpc_neon+0x148>
     298: 4ea41c82     	mov.16b	v2, v4
     29c: 4cdf7064     	ld1.16b	{ v4 }, [x3], #16
     2a0: 721f00ff     	tst	w7, #0x2
     2a4: 2f08a483     	ushll.8h	v3, v4, #0
     2a8: 6f08a484     	ushll2.8h	v4, v4, #0
     2ac: 54fffa81     	b.ne	0x1fc <wiener_filter7_h_8bpc_neon+0x90>
     2b0: 17ffffc6     	b	0x1c8 <wiener_filter7_h_8bpc_neon+0x5c>
     2b4: f9400bee     	ldr	x14, [sp, #16]
     2b8: a8c213e3     	ldp	x3, x4, [sp], #32
     2bc: d65f03c0     	ret

00000000000002c0 <wiener_filter7_v_8bpc_neon>:
     2c0: a9bc2fea     	stp	x10, x11, [sp, #-64]!
     2c4: a90137ec     	stp	x12, x13, [sp, #16]
     2c8: a9023bee     	stp	x14, x14, [sp, #32]
     2cc: a90313e0     	stp	x0, x4, [sp, #48]
     2d0: 4cdfa574     	ld1.8h	{ v20, v21 }, [x11], #32
     2d4: 4cdfa5b8     	ld1.8h	{ v24, v25 }, [x13], #32
     2d8: 4cdfa552     	ld1.8h	{ v18, v19 }, [x10], #32
     2dc: 4e748718     	add.8h	v24, v24, v20
     2e0: 4cdfa5da     	ld1.8h	{ v26, v27 }, [x14], #32
     2e4: 4cdfa530     	ld1.8h	{ v16, v17 }, [x9], #32
     2e8: 4e72875c     	add.8h	v28, v26, v18
     2ec: 4cdfa596     	ld1.8h	{ v22, v23 }, [x12], #32
     2f0: 4e708750     	add.8h	v16, v26, v16
     2f4: 4e758739     	add.8h	v25, v25, v21
     2f8: 0f71a2c2     	smull.4s	v2, v22, v1[3]
     2fc: 0f412b02     	smlal.4s	v2, v24, v1[4]
     300: 0f512b82     	smlal.4s	v2, v28, v1[5]
     304: 0f612a02     	smlal.4s	v2, v16, v1[6]
     308: 4e73877d     	add.8h	v29, v27, v19
     30c: 4f71a2c3     	smull2.4s	v3, v22, v1[3]
     310: 4f412b03     	smlal2.4s	v3, v24, v1[4]
     314: 4f512b83     	smlal2.4s	v3, v28, v1[5]
     318: 4f612a03     	smlal2.4s	v3, v16, v1[6]
     31c: 4e718771     	add.8h	v17, v27, v17
     320: 0f71a2e4     	smull.4s	v4, v23, v1[3]
     324: 0f412b24     	smlal.4s	v4, v25, v1[4]
     328: 0f512ba4     	smlal.4s	v4, v29, v1[5]
     32c: 0f612a24     	smlal.4s	v4, v17, v1[6]
     330: 4f71a2e5     	smull2.4s	v5, v23, v1[3]
     334: 4f412b25     	smlal2.4s	v5, v25, v1[4]
     338: 4f512ba5     	smlal2.4s	v5, v29, v1[5]
     33c: 4f612a25     	smlal2.4s	v5, v17, v1[6]
     340: 2f158c42     	sqrshrun.4h	v2, v2, #11
     344: 6f158c62     	sqrshrun2.8h	v2, v3, #11
     348: 2f158c83     	sqrshrun.4h	v3, v4, #11
     34c: 6f158ca3     	sqrshrun2.8h	v3, v5, #11
     350: 2e212842     	sqxtun.8b	v2, v2
     354: 6e212862     	sqxtun2.16b	v2, v3
     358: 71004084     	subs	w4, w4, #16
     35c: 4c9f7002     	st1.16b	{ v2 }, [x0], #16
     360: 54fffb8c     	b.gt	0x2d0 <wiener_filter7_v_8bpc_neon+0x10>
     364: a94313e0     	ldp	x0, x4, [sp, #48]
     368: a9423bed     	ldp	x13, x14, [sp, #32]
     36c: a94133eb     	ldp	x11, x12, [sp, #16]
     370: a8c42be9     	ldp	x9, x10, [sp], #64
     374: 8b010000     	add	x0, x0, x1
     378: d65f03c0     	ret

000000000000037c <wiener_filter7_hv_8bpc_neon>:
     37c: a9bb2fea     	stp	x10, x11, [sp, #-80]!
     380: a90137ec     	stp	x12, x13, [sp, #16]
     384: a9023fee     	stp	x14, x15, [sp, #32]
     388: a90303ea     	stp	x10, x0, [sp, #48]
     38c: a90413e3     	stp	x3, x4, [sp, #64]
     390: 720000ff     	tst	w7, #0x1
     394: 54000140     	b.eq	0x3bc <wiener_filter7_hv_8bpc_neon+0x40>
     398: b5000082     	cbnz	x2, 0x3a8 <wiener_filter7_hv_8bpc_neon+0x2c>
     39c: d1000c63     	sub	x3, x3, #3
     3a0: 4cdf7063     	ld1.16b	{ v3 }, [x3], #16
     3a4: 1400000a     	b	0x3cc <wiener_filter7_hv_8bpc_neon+0x50>
     3a8: 4cdf7063     	ld1.16b	{ v3 }, [x3], #16
     3ac: 4ddf9042     	ld1.s	{ v2 }[3], [x2], #4
     3b0: d1000c63     	sub	x3, x3, #3
     3b4: 6e036843     	ext.16b	v3, v2, v3, #13
     3b8: 14000005     	b	0x3cc <wiener_filter7_hv_8bpc_neon+0x50>
     3bc: 4cdf7063     	ld1.16b	{ v3 }, [x3], #16
     3c0: 4e010462     	dup.16b	v2, v3[0]
     3c4: d1000c63     	sub	x3, x3, #3
     3c8: 6e036843     	ext.16b	v3, v2, v3, #13
     3cc: 0cdf7064     	ld1.8b	{ v4 }, [x3], #8
     3d0: 2f08a462     	ushll.8h	v2, v3, #0
     3d4: 6f08a463     	ushll2.8h	v3, v3, #0
     3d8: 2f08a484     	ushll.8h	v4, v4, #0
     3dc: 721f00ff     	tst	w7, #0x2
     3e0: 540001c1     	b.ne	0x418 <wiener_filter7_hv_8bpc_neon+0x9c>
     3e4: 71004c9f     	cmp	w4, #19
     3e8: 5400018a     	b.ge	0x418 <wiener_filter7_hv_8bpc_neon+0x9c>
     3ec: 51005891     	sub	w17, w4, #22
     3f0: 90000006     	adrp	x6, 0x0 <wiener_filter7_hv_8bpc_neon+0x74>
     3f4: 910000c6     	add	x6, x6, #0
     3f8: d10018c6     	sub	x6, x6, #6
     3fc: 3c71c87c     	ldr	b28, [x3, w17, sxtw]
     400: cb2444c6     	sub	x6, x6, w4, uxtw #1
     404: 4e02079c     	dup.8h	v28, v28[0]
     408: 4c4060d9     	ld1.16b	{ v25, v26, v27 }, [x6]
     40c: 6eb91f82     	bit.16b	v2, v28, v25
     410: 6eba1f83     	bit.16b	v3, v28, v26
     414: 6ebb1f84     	bit.16b	v4, v28, v27
     418: 6e032051     	ext.16b	v17, v2, v3, #4
     41c: 6e034053     	ext.16b	v19, v2, v3, #8
     420: 6e031050     	ext.16b	v16, v2, v3, #2
     424: 6e035054     	ext.16b	v20, v2, v3, #10
     428: 6e036055     	ext.16b	v21, v2, v3, #12
     42c: 6e033052     	ext.16b	v18, v2, v3, #6
     430: 4e718673     	add.8h	v19, v19, v17
     434: 4e708694     	add.8h	v20, v20, v16
     438: 4e6286b5     	add.8h	v21, v21, v2
     43c: 4f175656     	shl.8h	v22, v18, #7
     440: 4f708246     	mul.8h	v6, v18, v0[3]
     444: 6f400a66     	mla.8h	v6, v19, v0[4]
     448: 6f500a86     	mla.8h	v6, v20, v0[5]
     44c: 6f600aa6     	mla.8h	v6, v21, v0[6]
     450: 6e042071     	ext.16b	v17, v3, v4, #4
     454: 6e044073     	ext.16b	v19, v3, v4, #8
     458: 6e041070     	ext.16b	v16, v3, v4, #2
     45c: 6e045074     	ext.16b	v20, v3, v4, #10
     460: 6e046075     	ext.16b	v21, v3, v4, #12
     464: 6e043072     	ext.16b	v18, v3, v4, #6
     468: 4e718673     	add.8h	v19, v19, v17
     46c: 4e708694     	add.8h	v20, v20, v16
     470: 4e6386b5     	add.8h	v21, v21, v3
     474: 4f175657     	shl.8h	v23, v18, #7
     478: 4f708247     	mul.8h	v7, v18, v0[3]
     47c: 6f400a67     	mla.8h	v7, v19, v0[4]
     480: 6f500a87     	mla.8h	v7, v20, v0[5]
     484: 6f600aa7     	mla.8h	v7, v21, v0[6]
     488: 4cdfa574     	ld1.8h	{ v20, v21 }, [x11], #32
     48c: 6e7e86d6     	sub.8h	v22, v22, v30
     490: 6e7e86f7     	sub.8h	v23, v23, v30
     494: 4cdfa5ba     	ld1.8h	{ v26, v27 }, [x13], #32
     498: 4e760cc6     	sqadd.8h	v6, v6, v22
     49c: 4e770ce7     	sqadd.8h	v7, v7, v23
     4a0: 4cdfa552     	ld1.8h	{ v18, v19 }, [x10], #32
     4a4: 4f1d04c6     	sshr.8h	v6, v6, #3
     4a8: 4f1d04e7     	sshr.8h	v7, v7, #3
     4ac: 4cdfa5dc     	ld1.8h	{ v28, v29 }, [x14], #32
     4b0: 4e7f84c6     	add.8h	v6, v6, v31
     4b4: 4e7f84e7     	add.8h	v7, v7, v31
     4b8: 4cdfa530     	ld1.8h	{ v16, v17 }, [x9], #32
     4bc: 4e7a869a     	add.8h	v26, v20, v26
     4c0: 4cdfa598     	ld1.8h	{ v24, v25 }, [x12], #32
     4c4: 4e7c865c     	add.8h	v28, v18, v28
     4c8: 4e668610     	add.8h	v16, v16, v6
     4cc: 4e7b86bb     	add.8h	v27, v21, v27
     4d0: 0f71a312     	smull.4s	v18, v24, v1[3]
     4d4: 0f412b52     	smlal.4s	v18, v26, v1[4]
     4d8: 0f512b92     	smlal.4s	v18, v28, v1[5]
     4dc: 0f612a12     	smlal.4s	v18, v16, v1[6]
     4e0: 4e7d867d     	add.8h	v29, v19, v29
     4e4: 4f71a313     	smull2.4s	v19, v24, v1[3]
     4e8: 4f412b53     	smlal2.4s	v19, v26, v1[4]
     4ec: 4f512b93     	smlal2.4s	v19, v28, v1[5]
     4f0: 4f612a13     	smlal2.4s	v19, v16, v1[6]
     4f4: 4e678631     	add.8h	v17, v17, v7
     4f8: 0f71a334     	smull.4s	v20, v25, v1[3]
     4fc: 0f412b74     	smlal.4s	v20, v27, v1[4]
     500: 0f512bb4     	smlal.4s	v20, v29, v1[5]
     504: 0f612a34     	smlal.4s	v20, v17, v1[6]
     508: 4f71a335     	smull2.4s	v21, v25, v1[3]
     50c: 4f412b75     	smlal2.4s	v21, v27, v1[4]
     510: 4f512bb5     	smlal2.4s	v21, v29, v1[5]
     514: 4f612a35     	smlal2.4s	v21, v17, v1[6]
     518: 2f158e52     	sqrshrun.4h	v18, v18, #11
     51c: 6f158e72     	sqrshrun2.8h	v18, v19, #11
     520: 2f158e93     	sqrshrun.4h	v19, v20, #11
     524: 6f158eb3     	sqrshrun2.8h	v19, v21, #11
     528: 4c9fa5e6     	st1.8h	{ v6, v7 }, [x15], #32
     52c: 2e212a52     	sqxtun.8b	v18, v18
     530: 6e212a72     	sqxtun2.16b	v18, v19
     534: 71004084     	subs	w4, w4, #16
     538: 4c9f7012     	st1.16b	{ v18 }, [x0], #16
     53c: 5400010d     	b.le	0x55c <wiener_filter7_hv_8bpc_neon+0x1e0>
     540: 4ea41c82     	mov.16b	v2, v4
     544: 4cdf7064     	ld1.16b	{ v4 }, [x3], #16
     548: 721f00ff     	tst	w7, #0x2
     54c: 2f08a483     	ushll.8h	v3, v4, #0
     550: 6f08a484     	ushll2.8h	v4, v4, #0
     554: 54fff621     	b.ne	0x418 <wiener_filter7_hv_8bpc_neon+0x9c>
     558: 17ffffa3     	b	0x3e4 <wiener_filter7_hv_8bpc_neon+0x68>
     55c: a94413e3     	ldp	x3, x4, [sp, #64]
     560: a94303ef     	ldp	x15, x0, [sp, #48]
     564: a9423bed     	ldp	x13, x14, [sp, #32]
     568: a94133eb     	ldp	x11, x12, [sp, #16]
     56c: a8c52be9     	ldp	x9, x10, [sp], #80
     570: 8b010063     	add	x3, x3, x1
     574: 8b010000     	add	x0, x0, x1
     578: d65f03c0     	ret

000000000000057c <wiener_filter5_8bpc_neon>:
     57c: a9bf7bfd     	stp	x29, x30, [sp, #-16]!
     580: 910003fd     	mov	x29, sp
     584: 4c40a4c0     	ld1.8h	{ v0, v1 }, [x6]
     588: 721e00ff     	tst	w7, #0x4
     58c: d13003ff     	sub	sp, sp, #3072
     590: 5287ff91     	mov	w17, #16380
     594: 4e020e3e     	dup.8h	v30, w17
     598: 4f00a51f     	movi.8h	v31, #8, lsl #8
     59c: 910003ee     	mov	x14, sp
     5a0: 540004c0     	b.eq	0x638 <wiener_filter5_8bpc_neon+0xbc>
     5a4: aa0203f0     	mov	x16, x2
     5a8: d2800002     	mov	x2, #0
     5ac: 94000041     	bl	0x6b0 <wiener_filter5_h_8bpc_neon>
     5b0: 8b010063     	add	x3, x3, x1
     5b4: aa0e03eb     	mov	x11, x14
     5b8: 910c01ce     	add	x14, x14, #768
     5bc: 9400003d     	bl	0x6b0 <wiener_filter5_h_8bpc_neon>
     5c0: 8b010863     	add	x3, x3, x1, lsl #2
     5c4: 8b010063     	add	x3, x3, x1
     5c8: aa0e03ec     	mov	x12, x14
     5cc: 910c01ce     	add	x14, x14, #768
     5d0: aa1003e2     	mov	x2, x16
     5d4: aa0303f0     	mov	x16, x3
     5d8: aa0003e3     	mov	x3, x0
     5dc: 94000035     	bl	0x6b0 <wiener_filter5_h_8bpc_neon>
     5e0: 710004a5     	subs	w5, w5, #1
     5e4: aa0e03ed     	mov	x13, x14
     5e8: 54000600     	b.eq	0x6a8 <wiener_filter5_8bpc_neon+0x12c>
     5ec: 8b010063     	add	x3, x3, x1
     5f0: 910c01ce     	add	x14, x14, #768
     5f4: 9400002f     	bl	0x6b0 <wiener_filter5_h_8bpc_neon>
     5f8: 710004a5     	subs	w5, w5, #1
     5fc: 540004c0     	b.eq	0x694 <wiener_filter5_8bpc_neon+0x118>
     600: 8b010063     	add	x3, x3, x1
     604: aa0b03ef     	mov	x15, x11
     608: 9400009b     	bl	0x874 <wiener_filter5_hv_8bpc_neon>
     60c: 710004a5     	subs	w5, w5, #1
     610: 54ffffc1     	b.ne	0x608 <wiener_filter5_8bpc_neon+0x8c>
     614: 721d00ff     	tst	w7, #0x8
     618: 540003e0     	b.eq	0x694 <wiener_filter5_8bpc_neon+0x118>
     61c: aa1003e3     	mov	x3, x16
     620: d2800002     	mov	x2, #0
     624: 94000094     	bl	0x874 <wiener_filter5_hv_8bpc_neon>
     628: 94000093     	bl	0x874 <wiener_filter5_hv_8bpc_neon>
     62c: 910003bf     	mov	sp, x29
     630: a8c17bfd     	ldp	x29, x30, [sp], #16
     634: d65f03c0     	ret
     638: 8b010863     	add	x3, x3, x1, lsl #2
     63c: 8b010470     	add	x16, x3, x1, lsl #1
     640: aa0003e3     	mov	x3, x0
     644: 9400001b     	bl	0x6b0 <wiener_filter5_h_8bpc_neon>
     648: 710004a5     	subs	w5, w5, #1
     64c: aa0e03eb     	mov	x11, x14
     650: aa0e03ec     	mov	x12, x14
     654: aa0e03ed     	mov	x13, x14
     658: 54000280     	b.eq	0x6a8 <wiener_filter5_8bpc_neon+0x12c>
     65c: 8b010063     	add	x3, x3, x1
     660: 910c01ce     	add	x14, x14, #768
     664: 94000013     	bl	0x6b0 <wiener_filter5_h_8bpc_neon>
     668: 710004a5     	subs	w5, w5, #1
     66c: 54000140     	b.eq	0x694 <wiener_filter5_8bpc_neon+0x118>
     670: 8b010063     	add	x3, x3, x1
     674: 910c01cf     	add	x15, x14, #768
     678: 9400007f     	bl	0x874 <wiener_filter5_hv_8bpc_neon>
     67c: 710004a5     	subs	w5, w5, #1
     680: 540000a0     	b.eq	0x694 <wiener_filter5_8bpc_neon+0x118>
     684: 912401ef     	add	x15, x15, #2304
     688: 9400007b     	bl	0x874 <wiener_filter5_hv_8bpc_neon>
     68c: 710004a5     	subs	w5, w5, #1
     690: 54fffba1     	b.ne	0x604 <wiener_filter5_8bpc_neon+0x88>
     694: 94000054     	bl	0x7e4 <wiener_filter5_v_8bpc_neon>
     698: 8b010000     	add	x0, x0, x1
     69c: aa0c03eb     	mov	x11, x12
     6a0: aa0d03ec     	mov	x12, x13
     6a4: aa0e03ed     	mov	x13, x14
     6a8: 9400004f     	bl	0x7e4 <wiener_filter5_v_8bpc_neon>
     6ac: 17ffffe0     	b	0x62c <wiener_filter5_8bpc_neon+0xb0>

00000000000006b0 <wiener_filter5_h_8bpc_neon>:
     6b0: a9be13e3     	stp	x3, x4, [sp, #-32]!
     6b4: f9000bee     	str	x14, [sp, #16]
     6b8: 720000ff     	tst	w7, #0x1
     6bc: 54000140     	b.eq	0x6e4 <wiener_filter5_h_8bpc_neon+0x34>
     6c0: b5000082     	cbnz	x2, 0x6d0 <wiener_filter5_h_8bpc_neon+0x20>
     6c4: d1000863     	sub	x3, x3, #2
     6c8: 4cdf7063     	ld1.16b	{ v3 }, [x3], #16
     6cc: 1400000a     	b	0x6f4 <wiener_filter5_h_8bpc_neon+0x44>
     6d0: 4cdf7063     	ld1.16b	{ v3 }, [x3], #16
     6d4: 4ddf9042     	ld1.s	{ v2 }[3], [x2], #4
     6d8: d1000863     	sub	x3, x3, #2
     6dc: 6e037043     	ext.16b	v3, v2, v3, #14
     6e0: 14000005     	b	0x6f4 <wiener_filter5_h_8bpc_neon+0x44>
     6e4: 4cdf7063     	ld1.16b	{ v3 }, [x3], #16
     6e8: 4e010462     	dup.16b	v2, v3[0]
     6ec: d1000863     	sub	x3, x3, #2
     6f0: 6e037043     	ext.16b	v3, v2, v3, #14
     6f4: 0cdf7064     	ld1.8b	{ v4 }, [x3], #8
     6f8: 2f08a462     	ushll.8h	v2, v3, #0
     6fc: 6f08a463     	ushll2.8h	v3, v3, #0
     700: 2f08a484     	ushll.8h	v4, v4, #0
     704: 721f00ff     	tst	w7, #0x2
     708: 540001c1     	b.ne	0x740 <wiener_filter5_h_8bpc_neon+0x90>
     70c: 7100489f     	cmp	w4, #18
     710: 5400018a     	b.ge	0x740 <wiener_filter5_h_8bpc_neon+0x90>
     714: 51005c91     	sub	w17, w4, #23
     718: 90000006     	adrp	x6, 0x0 <wiener_filter5_h_8bpc_neon+0x68>
     71c: 910000c6     	add	x6, x6, #0
     720: d10010c6     	sub	x6, x6, #4
     724: 3c71c87c     	ldr	b28, [x3, w17, sxtw]
     728: cb2444c6     	sub	x6, x6, w4, uxtw #1
     72c: 4e02079c     	dup.8h	v28, v28[0]
     730: 4c4060d9     	ld1.16b	{ v25, v26, v27 }, [x6]
     734: 6eb91f82     	bit.16b	v2, v28, v25
     738: 6eba1f83     	bit.16b	v3, v28, v26
     73c: 6ebb1f84     	bit.16b	v4, v28, v27
     740: 6e031050     	ext.16b	v16, v2, v3, #2
     744: 6e033052     	ext.16b	v18, v2, v3, #6
     748: 6e034053     	ext.16b	v19, v2, v3, #8
     74c: 6e032051     	ext.16b	v17, v2, v3, #4
     750: 4e708652     	add.8h	v18, v18, v16
     754: 4e628673     	add.8h	v19, v19, v2
     758: 4f175636     	shl.8h	v22, v17, #7
     75c: 4f708226     	mul.8h	v6, v17, v0[3]
     760: 6f400a46     	mla.8h	v6, v18, v0[4]
     764: 6f500a66     	mla.8h	v6, v19, v0[5]
     768: 6e041070     	ext.16b	v16, v3, v4, #2
     76c: 6e043072     	ext.16b	v18, v3, v4, #6
     770: 6e044073     	ext.16b	v19, v3, v4, #8
     774: 6e042071     	ext.16b	v17, v3, v4, #4
     778: 4e708652     	add.8h	v18, v18, v16
     77c: 4e638673     	add.8h	v19, v19, v3
     780: 4f175637     	shl.8h	v23, v17, #7
     784: 4f708227     	mul.8h	v7, v17, v0[3]
     788: 6f400a47     	mla.8h	v7, v18, v0[4]
     78c: 6f500a67     	mla.8h	v7, v19, v0[5]
     790: 6e7e86d6     	sub.8h	v22, v22, v30
     794: 6e7e86f7     	sub.8h	v23, v23, v30
     798: 4e760cc6     	sqadd.8h	v6, v6, v22
     79c: 4e770ce7     	sqadd.8h	v7, v7, v23
     7a0: 4f1d04c6     	sshr.8h	v6, v6, #3
     7a4: 4f1d04e7     	sshr.8h	v7, v7, #3
     7a8: 4e7f84c6     	add.8h	v6, v6, v31
     7ac: 4e7f84e7     	add.8h	v7, v7, v31
     7b0: 71004084     	subs	w4, w4, #16
     7b4: 4c9fa5c6     	st1.8h	{ v6, v7 }, [x14], #32
     7b8: 5400010d     	b.le	0x7d8 <wiener_filter5_h_8bpc_neon+0x128>
     7bc: 4ea41c82     	mov.16b	v2, v4
     7c0: 4cdf7064     	ld1.16b	{ v4 }, [x3], #16
     7c4: 721f00ff     	tst	w7, #0x2
     7c8: 2f08a483     	ushll.8h	v3, v4, #0
     7cc: 6f08a484     	ushll2.8h	v4, v4, #0
     7d0: 54fffb81     	b.ne	0x740 <wiener_filter5_h_8bpc_neon+0x90>
     7d4: 17ffffce     	b	0x70c <wiener_filter5_h_8bpc_neon+0x5c>
     7d8: f9400bee     	ldr	x14, [sp, #16]
     7dc: a8c213e3     	ldp	x3, x4, [sp], #32
     7e0: d65f03c0     	ret

00000000000007e4 <wiener_filter5_v_8bpc_neon>:
     7e4: a9bd33eb     	stp	x11, x12, [sp, #-48]!
     7e8: a9013bed     	stp	x13, x14, [sp, #16]
     7ec: a90213e0     	stp	x0, x4, [sp, #32]
     7f0: 4cdfa592     	ld1.8h	{ v18, v19 }, [x12], #32
     7f4: 4cdfa5d6     	ld1.8h	{ v22, v23 }, [x14], #32
     7f8: 4cdfa570     	ld1.8h	{ v16, v17 }, [x11], #32
     7fc: 4e7286d8     	add.8h	v24, v22, v18
     800: 4cdfa5b4     	ld1.8h	{ v20, v21 }, [x13], #32
     804: 4e7086d0     	add.8h	v16, v22, v16
     808: 4e7386f9     	add.8h	v25, v23, v19
     80c: 0f71a282     	smull.4s	v2, v20, v1[3]
     810: 0f412b02     	smlal.4s	v2, v24, v1[4]
     814: 0f512a02     	smlal.4s	v2, v16, v1[5]
     818: 4e7186f1     	add.8h	v17, v23, v17
     81c: 4f71a283     	smull2.4s	v3, v20, v1[3]
     820: 4f412b03     	smlal2.4s	v3, v24, v1[4]
     824: 4f512a03     	smlal2.4s	v3, v16, v1[5]
     828: 0f71a2a4     	smull.4s	v4, v21, v1[3]
     82c: 0f412b24     	smlal.4s	v4, v25, v1[4]
     830: 0f512a24     	smlal.4s	v4, v17, v1[5]
     834: 4f71a2a5     	smull2.4s	v5, v21, v1[3]
     838: 4f412b25     	smlal2.4s	v5, v25, v1[4]
     83c: 4f512a25     	smlal2.4s	v5, v17, v1[5]
     840: 2f158c42     	sqrshrun.4h	v2, v2, #11
     844: 6f158c62     	sqrshrun2.8h	v2, v3, #11
     848: 2f158c83     	sqrshrun.4h	v3, v4, #11
     84c: 6f158ca3     	sqrshrun2.8h	v3, v5, #11
     850: 2e212842     	sqxtun.8b	v2, v2
     854: 6e212862     	sqxtun2.16b	v2, v3
     858: 71004084     	subs	w4, w4, #16
     85c: 4c9f7002     	st1.16b	{ v2 }, [x0], #16
     860: 54fffc8c     	b.gt	0x7f0 <wiener_filter5_v_8bpc_neon+0xc>
     864: a94213e0     	ldp	x0, x4, [sp, #32]
     868: a9413bed     	ldp	x13, x14, [sp, #16]
     86c: a8c333eb     	ldp	x11, x12, [sp], #48
     870: d65f03c0     	ret

0000000000000874 <wiener_filter5_hv_8bpc_neon>:
     874: a9bc37ec     	stp	x12, x13, [sp, #-64]!
     878: a9013fee     	stp	x14, x15, [sp, #16]
     87c: a90203ec     	stp	x12, x0, [sp, #32]
     880: a90313e3     	stp	x3, x4, [sp, #48]
     884: 720000ff     	tst	w7, #0x1
     888: 54000140     	b.eq	0x8b0 <wiener_filter5_hv_8bpc_neon+0x3c>
     88c: b5000082     	cbnz	x2, 0x89c <wiener_filter5_hv_8bpc_neon+0x28>
     890: d1000863     	sub	x3, x3, #2
     894: 4cdf7063     	ld1.16b	{ v3 }, [x3], #16
     898: 1400000a     	b	0x8c0 <wiener_filter5_hv_8bpc_neon+0x4c>
     89c: 4cdf7063     	ld1.16b	{ v3 }, [x3], #16
     8a0: 4ddf9042     	ld1.s	{ v2 }[3], [x2], #4
     8a4: d1000863     	sub	x3, x3, #2
     8a8: 6e037043     	ext.16b	v3, v2, v3, #14
     8ac: 14000005     	b	0x8c0 <wiener_filter5_hv_8bpc_neon+0x4c>
     8b0: 4cdf7063     	ld1.16b	{ v3 }, [x3], #16
     8b4: 4e010462     	dup.16b	v2, v3[0]
     8b8: d1000863     	sub	x3, x3, #2
     8bc: 6e037043     	ext.16b	v3, v2, v3, #14
     8c0: 0cdf7064     	ld1.8b	{ v4 }, [x3], #8
     8c4: 2f08a462     	ushll.8h	v2, v3, #0
     8c8: 6f08a463     	ushll2.8h	v3, v3, #0
     8cc: 2f08a484     	ushll.8h	v4, v4, #0
     8d0: 721f00ff     	tst	w7, #0x2
     8d4: 540001c1     	b.ne	0x90c <wiener_filter5_hv_8bpc_neon+0x98>
     8d8: 7100489f     	cmp	w4, #18
     8dc: 5400018a     	b.ge	0x90c <wiener_filter5_hv_8bpc_neon+0x98>
     8e0: 51005c91     	sub	w17, w4, #23
     8e4: 90000006     	adrp	x6, 0x0 <wiener_filter5_hv_8bpc_neon+0x70>
     8e8: 910000c6     	add	x6, x6, #0
     8ec: d10010c6     	sub	x6, x6, #4
     8f0: 3c71c87c     	ldr	b28, [x3, w17, sxtw]
     8f4: cb2444c6     	sub	x6, x6, w4, uxtw #1
     8f8: 4e02079c     	dup.8h	v28, v28[0]
     8fc: 4c4060d9     	ld1.16b	{ v25, v26, v27 }, [x6]
     900: 6eb91f82     	bit.16b	v2, v28, v25
     904: 6eba1f83     	bit.16b	v3, v28, v26
     908: 6ebb1f84     	bit.16b	v4, v28, v27
     90c: 6e031050     	ext.16b	v16, v2, v3, #2
     910: 6e033052     	ext.16b	v18, v2, v3, #6
     914: 6e034053     	ext.16b	v19, v2, v3, #8
     918: 6e032051     	ext.16b	v17, v2, v3, #4
     91c: 4e708652     	add.8h	v18, v18, v16
     920: 4e628673     	add.8h	v19, v19, v2
     924: 4f175636     	shl.8h	v22, v17, #7
     928: 4f708226     	mul.8h	v6, v17, v0[3]
     92c: 6f400a46     	mla.8h	v6, v18, v0[4]
     930: 6f500a66     	mla.8h	v6, v19, v0[5]
     934: 6e041070     	ext.16b	v16, v3, v4, #2
     938: 6e043072     	ext.16b	v18, v3, v4, #6
     93c: 6e044073     	ext.16b	v19, v3, v4, #8
     940: 6e042071     	ext.16b	v17, v3, v4, #4
     944: 4e708652     	add.8h	v18, v18, v16
     948: 4e638673     	add.8h	v19, v19, v3
     94c: 4f175637     	shl.8h	v23, v17, #7
     950: 4f708227     	mul.8h	v7, v17, v0[3]
     954: 6f400a47     	mla.8h	v7, v18, v0[4]
     958: 6f500a67     	mla.8h	v7, v19, v0[5]
     95c: 4cdfa592     	ld1.8h	{ v18, v19 }, [x12], #32
     960: 6e7e86d6     	sub.8h	v22, v22, v30
     964: 6e7e86f7     	sub.8h	v23, v23, v30
     968: 4cdfa5d8     	ld1.8h	{ v24, v25 }, [x14], #32
     96c: 4e760cc6     	sqadd.8h	v6, v6, v22
     970: 4e770ce7     	sqadd.8h	v7, v7, v23
     974: 4cdfa570     	ld1.8h	{ v16, v17 }, [x11], #32
     978: 4f1d04c6     	sshr.8h	v6, v6, #3
     97c: 4f1d04e7     	sshr.8h	v7, v7, #3
     980: 4cdfa5b4     	ld1.8h	{ v20, v21 }, [x13], #32
     984: 4e7f84c6     	add.8h	v6, v6, v31
     988: 4e7f84e7     	add.8h	v7, v7, v31
     98c: 4e728718     	add.8h	v24, v24, v18
     990: 4e668610     	add.8h	v16, v16, v6
     994: 0f71a292     	smull.4s	v18, v20, v1[3]
     998: 0f412b12     	smlal.4s	v18, v24, v1[4]
     99c: 0f512a12     	smlal.4s	v18, v16, v1[5]
     9a0: 4e738739     	add.8h	v25, v25, v19
     9a4: 4f71a293     	smull2.4s	v19, v20, v1[3]
     9a8: 4f412b13     	smlal2.4s	v19, v24, v1[4]
     9ac: 4f512a13     	smlal2.4s	v19, v16, v1[5]
     9b0: 4e678631     	add.8h	v17, v17, v7
     9b4: 0f71a2b4     	smull.4s	v20, v21, v1[3]
     9b8: 0f412b34     	smlal.4s	v20, v25, v1[4]
     9bc: 0f512a34     	smlal.4s	v20, v17, v1[5]
     9c0: 4f71a2b5     	smull2.4s	v21, v21, v1[3]
     9c4: 4f412b35     	smlal2.4s	v21, v25, v1[4]
     9c8: 4f512a35     	smlal2.4s	v21, v17, v1[5]
     9cc: 2f158e52     	sqrshrun.4h	v18, v18, #11
     9d0: 6f158e72     	sqrshrun2.8h	v18, v19, #11
     9d4: 2f158e93     	sqrshrun.4h	v19, v20, #11
     9d8: 6f158eb3     	sqrshrun2.8h	v19, v21, #11
     9dc: 4c9fa5e6     	st1.8h	{ v6, v7 }, [x15], #32
     9e0: 2e212a52     	sqxtun.8b	v18, v18
     9e4: 6e212a72     	sqxtun2.16b	v18, v19
     9e8: 71004084     	subs	w4, w4, #16
     9ec: 4c9f7012     	st1.16b	{ v18 }, [x0], #16
     9f0: 5400010d     	b.le	0xa10 <wiener_filter5_hv_8bpc_neon+0x19c>
     9f4: 4ea41c82     	mov.16b	v2, v4
     9f8: 4cdf7064     	ld1.16b	{ v4 }, [x3], #16
     9fc: 721f00ff     	tst	w7, #0x2
     a00: 2f08a483     	ushll.8h	v3, v4, #0
     a04: 6f08a484     	ushll2.8h	v4, v4, #0
     a08: 54fff821     	b.ne	0x90c <wiener_filter5_hv_8bpc_neon+0x98>
     a0c: 17ffffb3     	b	0x8d8 <wiener_filter5_hv_8bpc_neon+0x64>
     a10: a94313e3     	ldp	x3, x4, [sp, #48]
     a14: a94203ef     	ldp	x15, x0, [sp, #32]
     a18: a9413bed     	ldp	x13, x14, [sp, #16]
     a1c: a8c433eb     	ldp	x11, x12, [sp], #64
     a20: 8b010063     	add	x3, x3, x1
     a24: 8b010000     	add	x0, x0, x1
     a28: d65f03c0     	ret

0000000000000a2c <sgr_box3_row_h_8bpc_neon>:
     a2c: 11000884     	add	w4, w4, #2
     a30: 720000bf     	tst	w5, #0x1
     a34: 54000140     	b.eq	0xa5c <sgr_box3_row_h_8bpc_neon+0x30>
     a38: b5000082     	cbnz	x2, 0xa48 <sgr_box3_row_h_8bpc_neon+0x1c>
     a3c: d1000863     	sub	x3, x3, #2
     a40: 4cdf7060     	ld1.16b	{ v0 }, [x3], #16
     a44: 1400000a     	b	0xa6c <sgr_box3_row_h_8bpc_neon+0x40>
     a48: 4cdf7060     	ld1.16b	{ v0 }, [x3], #16
     a4c: 4d409041     	ld1.s	{ v1 }[3], [x2]
     a50: d1000863     	sub	x3, x3, #2
     a54: 6e007020     	ext.16b	v0, v1, v0, #14
     a58: 14000005     	b	0xa6c <sgr_box3_row_h_8bpc_neon+0x40>
     a5c: 4cdf7060     	ld1.16b	{ v0 }, [x3], #16
     a60: 4e010401     	dup.16b	v1, v0[0]
     a64: d1000863     	sub	x3, x3, #2
     a68: 6e007020     	ext.16b	v0, v1, v0, #14
     a6c: 2e20c001     	umull.8h	v1, v0, v0
     a70: 6e20c002     	umull2.8h	v2, v0, v0
     a74: 721f00bf     	tst	w5, #0x2
     a78: 540001a1     	b.ne	0xaac <sgr_box3_row_h_8bpc_neon+0x80>
     a7c: 5100448d     	sub	w13, w4, #17
     a80: 3c6dc87e     	ldr	b30, [x3, w13, sxtw]
     a84: 4e0107de     	dup.16b	v30, v30[0]
     a88: 7100289f     	cmp	w4, #10
     a8c: 5400010a     	b.ge	0xaac <sgr_box3_row_h_8bpc_neon+0x80>
     a90: 9000000d     	adrp	x13, 0x0 <sgr_box3_row_h_8bpc_neon+0x64>
     a94: 910001ad     	add	x13, x13, #0
     a98: cb2441ad     	sub	x13, x13, w4, uxtw
     a9c: 4c4071bd     	ld1.16b	{ v29 }, [x13]
     aa0: 6ebd1fc0     	bit.16b	v0, v30, v29
     aa4: 2e20c001     	umull.8h	v1, v0, v0
     aa8: 6e20c002     	umull2.8h	v2, v0, v0
     aac: 6e000810     	ext.16b	v16, v0, v0, #1
     ab0: 6e001011     	ext.16b	v17, v0, v0, #2
     ab4: 2e300003     	uaddl.8h	v3, v0, v16
     ab8: 6e021034     	ext.16b	v20, v1, v2, #2
     abc: 2e311063     	uaddw.8h	v3, v3, v17
     ac0: 6e022035     	ext.16b	v21, v1, v2, #4
     ac4: 2e74003a     	uaddl.4s	v26, v1, v20
     ac8: 6e74003b     	uaddl2.4s	v27, v1, v20
     acc: 2e75135a     	uaddw.4s	v26, v26, v21
     ad0: 6e75137b     	uaddw2.4s	v27, v27, v21
     ad4: 71002084     	subs	w4, w4, #8
     ad8: 4c9f7423     	st1.8h	{ v3 }, [x1], #16
     adc: 4c9fa81a     	st1.4s	{ v26, v27 }, [x0], #32
     ae0: 5400010d     	b.le	0xb00 <sgr_box3_row_h_8bpc_neon+0xd4>
     ae4: 721f00bf     	tst	w5, #0x2
     ae8: 0cdf7063     	ld1.8b	{ v3 }, [x3], #8
     aec: 4ea21c41     	mov.16b	v1, v2
     af0: 6e034000     	ext.16b	v0, v0, v3, #8
     af4: 2e23c062     	umull.8h	v2, v3, v3
     af8: 54fffda1     	b.ne	0xaac <sgr_box3_row_h_8bpc_neon+0x80>
     afc: 17ffffe3     	b	0xa88 <sgr_box3_row_h_8bpc_neon+0x5c>
     b00: d65f03c0     	ret

0000000000000b04 <sgr_box5_row_h_8bpc_neon>:
     b04: 11000884     	add	w4, w4, #2
     b08: 720000bf     	tst	w5, #0x1
     b0c: 54000140     	b.eq	0xb34 <sgr_box5_row_h_8bpc_neon+0x30>
     b10: b5000082     	cbnz	x2, 0xb20 <sgr_box5_row_h_8bpc_neon+0x1c>
     b14: d1000c63     	sub	x3, x3, #3
     b18: 4cdf7060     	ld1.16b	{ v0 }, [x3], #16
     b1c: 1400000a     	b	0xb44 <sgr_box5_row_h_8bpc_neon+0x40>
     b20: 4cdf7060     	ld1.16b	{ v0 }, [x3], #16
     b24: 4ddf9041     	ld1.s	{ v1 }[3], [x2], #4
     b28: d1000c63     	sub	x3, x3, #3
     b2c: 6e006820     	ext.16b	v0, v1, v0, #13
     b30: 14000005     	b	0xb44 <sgr_box5_row_h_8bpc_neon+0x40>
     b34: 4cdf7060     	ld1.16b	{ v0 }, [x3], #16
     b38: 4e010401     	dup.16b	v1, v0[0]
     b3c: d1000c63     	sub	x3, x3, #3
     b40: 6e006820     	ext.16b	v0, v1, v0, #13
     b44: 2e20c001     	umull.8h	v1, v0, v0
     b48: 6e20c002     	umull2.8h	v2, v0, v0
     b4c: 721f00bf     	tst	w5, #0x2
     b50: 540001c1     	b.ne	0xb88 <sgr_box5_row_h_8bpc_neon+0x84>
     b54: 5100408d     	sub	w13, w4, #16
     b58: 3c6dc87e     	ldr	b30, [x3, w13, sxtw]
     b5c: 4e0107de     	dup.16b	v30, v30[0]
     b60: 71002c9f     	cmp	w4, #11
     b64: 5400012a     	b.ge	0xb88 <sgr_box5_row_h_8bpc_neon+0x84>
     b68: 9000000d     	adrp	x13, 0x0 <sgr_box5_row_h_8bpc_neon+0x64>
     b6c: 910001ad     	add	x13, x13, #0
     b70: d10005ad     	sub	x13, x13, #1
     b74: cb2441ad     	sub	x13, x13, w4, uxtw
     b78: 4c4071bd     	ld1.16b	{ v29 }, [x13]
     b7c: 6ebd1fc0     	bit.16b	v0, v30, v29
     b80: 2e20c001     	umull.8h	v1, v0, v0
     b84: 6e20c002     	umull2.8h	v2, v0, v0
     b88: 6e000810     	ext.16b	v16, v0, v0, #1
     b8c: 6e001011     	ext.16b	v17, v0, v0, #2
     b90: 6e001812     	ext.16b	v18, v0, v0, #3
     b94: 6e002013     	ext.16b	v19, v0, v0, #4
     b98: 2e300003     	uaddl.8h	v3, v0, v16
     b9c: 2e320238     	uaddl.8h	v24, v17, v18
     ba0: 2e331063     	uaddw.8h	v3, v3, v19
     ba4: 4e788463     	add.8h	v3, v3, v24
     ba8: 6e021030     	ext.16b	v16, v1, v2, #2
     bac: 6e022031     	ext.16b	v17, v1, v2, #4
     bb0: 6e023032     	ext.16b	v18, v1, v2, #6
     bb4: 6e024033     	ext.16b	v19, v1, v2, #8
     bb8: 2e70003a     	uaddl.4s	v26, v1, v16
     bbc: 6e70003b     	uaddl2.4s	v27, v1, v16
     bc0: 2e720230     	uaddl.4s	v16, v17, v18
     bc4: 6e720231     	uaddl2.4s	v17, v17, v18
     bc8: 2e73135a     	uaddw.4s	v26, v26, v19
     bcc: 6e73137b     	uaddw2.4s	v27, v27, v19
     bd0: 4eb0875a     	add.4s	v26, v26, v16
     bd4: 4eb1877b     	add.4s	v27, v27, v17
     bd8: 71002084     	subs	w4, w4, #8
     bdc: 4c9f7423     	st1.8h	{ v3 }, [x1], #16
     be0: 4c9fa81a     	st1.4s	{ v26, v27 }, [x0], #32
     be4: 5400010d     	b.le	0xc04 <sgr_box5_row_h_8bpc_neon+0x100>
     be8: 721f00bf     	tst	w5, #0x2
     bec: 0cdf7063     	ld1.8b	{ v3 }, [x3], #8
     bf0: 4ea21c41     	mov.16b	v1, v2
     bf4: 6e034000     	ext.16b	v0, v0, v3, #8
     bf8: 2e23c062     	umull.8h	v2, v3, v3
     bfc: 54fffc61     	b.ne	0xb88 <sgr_box5_row_h_8bpc_neon+0x84>
     c00: 17ffffd8     	b	0xb60 <sgr_box5_row_h_8bpc_neon+0x5c>
     c04: d65f03c0     	ret

0000000000000c08 <sgr_box35_row_h_8bpc_neon>:
     c08: 110008c6     	add	w6, w6, #2
     c0c: 720000ff     	tst	w7, #0x1
     c10: 54000140     	b.eq	0xc38 <sgr_box35_row_h_8bpc_neon+0x30>
     c14: b5000084     	cbnz	x4, 0xc24 <sgr_box35_row_h_8bpc_neon+0x1c>
     c18: d1000ca5     	sub	x5, x5, #3
     c1c: 4cdf70a0     	ld1.16b	{ v0 }, [x5], #16
     c20: 1400000a     	b	0xc48 <sgr_box35_row_h_8bpc_neon+0x40>
     c24: 4cdf70a0     	ld1.16b	{ v0 }, [x5], #16
     c28: 4ddf9081     	ld1.s	{ v1 }[3], [x4], #4
     c2c: d1000ca5     	sub	x5, x5, #3
     c30: 6e006820     	ext.16b	v0, v1, v0, #13
     c34: 14000005     	b	0xc48 <sgr_box35_row_h_8bpc_neon+0x40>
     c38: 4cdf70a0     	ld1.16b	{ v0 }, [x5], #16
     c3c: 4e010401     	dup.16b	v1, v0[0]
     c40: d1000ca5     	sub	x5, x5, #3
     c44: 6e006820     	ext.16b	v0, v1, v0, #13
     c48: 2e20c001     	umull.8h	v1, v0, v0
     c4c: 6e20c002     	umull2.8h	v2, v0, v0
     c50: 721f00ff     	tst	w7, #0x2
     c54: 540001c1     	b.ne	0xc8c <sgr_box35_row_h_8bpc_neon+0x84>
     c58: 510040cd     	sub	w13, w6, #16
     c5c: 3c6dc8be     	ldr	b30, [x5, w13, sxtw]
     c60: 4e0107de     	dup.16b	v30, v30[0]
     c64: 71002cdf     	cmp	w6, #11
     c68: 5400012a     	b.ge	0xc8c <sgr_box35_row_h_8bpc_neon+0x84>
     c6c: 9000000d     	adrp	x13, 0x0 <sgr_box35_row_h_8bpc_neon+0x64>
     c70: 910001ad     	add	x13, x13, #0
     c74: d10005ad     	sub	x13, x13, #1
     c78: cb2641ad     	sub	x13, x13, w6, uxtw
     c7c: 4c4071bd     	ld1.16b	{ v29 }, [x13]
     c80: 6ebd1fc0     	bit.16b	v0, v30, v29
     c84: 2e20c001     	umull.8h	v1, v0, v0
     c88: 6e20c002     	umull2.8h	v2, v0, v0
     c8c: 6e000810     	ext.16b	v16, v0, v0, #1
     c90: 6e001011     	ext.16b	v17, v0, v0, #2
     c94: 6e002013     	ext.16b	v19, v0, v0, #4
     c98: 6e001812     	ext.16b	v18, v0, v0, #3
     c9c: 2e310203     	uaddl.8h	v3, v16, v17
     ca0: 2e330018     	uaddl.8h	v24, v0, v19
     ca4: 2e321063     	uaddw.8h	v3, v3, v18
     ca8: 6e021030     	ext.16b	v16, v1, v2, #2
     cac: 6e022031     	ext.16b	v17, v1, v2, #4
     cb0: 6e024033     	ext.16b	v19, v1, v2, #8
     cb4: 6e023032     	ext.16b	v18, v1, v2, #6
     cb8: 4c9f7423     	st1.8h	{ v3 }, [x1], #16
     cbc: 4e788463     	add.8h	v3, v3, v24
     cc0: 2e71021a     	uaddl.4s	v26, v16, v17
     cc4: 6e71021b     	uaddl2.4s	v27, v16, v17
     cc8: 2e730030     	uaddl.4s	v16, v1, v19
     ccc: 6e730031     	uaddl2.4s	v17, v1, v19
     cd0: 2e72135a     	uaddw.4s	v26, v26, v18
     cd4: 6e72137b     	uaddw2.4s	v27, v27, v18
     cd8: 4c9fa81a     	st1.4s	{ v26, v27 }, [x0], #32
     cdc: 4eb0875a     	add.4s	v26, v26, v16
     ce0: 4eb1877b     	add.4s	v27, v27, v17
     ce4: 710020c6     	subs	w6, w6, #8
     ce8: 4c9f7463     	st1.8h	{ v3 }, [x3], #16
     cec: 4c9fa85a     	st1.4s	{ v26, v27 }, [x2], #32
     cf0: 5400010d     	b.le	0xd10 <sgr_box35_row_h_8bpc_neon+0x108>
     cf4: 721f00ff     	tst	w7, #0x2
     cf8: 0cdf70a3     	ld1.8b	{ v3 }, [x5], #8
     cfc: 4ea21c41     	mov.16b	v1, v2
     d00: 6e034000     	ext.16b	v0, v0, v3, #8
     d04: 2e23c062     	umull.8h	v2, v3, v3
     d08: 54fffc21     	b.ne	0xc8c <sgr_box35_row_h_8bpc_neon+0x84>
     d0c: 17ffffd6     	b	0xc64 <sgr_box35_row_h_8bpc_neon+0x5c>
     d10: d65f03c0     	ret

0000000000000d14 <sgr_finish_filter1_2rows_8bpc_neon>:
     d14: 6dbc27e8     	stp	d8, d9, [sp, #-64]!
     d18: 6d012fea     	stp	d10, d11, [sp, #16]
     d1c: 6d0237ec     	stp	d12, d13, [sp, #32]
     d20: 6d033fee     	stp	d14, d15, [sp, #48]
     d24: a9402067     	ldp	x7, x8, [x3]
     d28: a9410c69     	ldp	x9, x3, [x3, #16]
     d2c: a9402c8a     	ldp	x10, x11, [x4]
     d30: a941108c     	ldp	x12, x4, [x4, #16]
     d34: d280300d     	mov	x13, #384
     d38: 710004df     	cmp	w6, #1
     d3c: 8b020022     	add	x2, x1, x2
     d40: 9a82d022     	csel	x2, x1, x2, le
     d44: 8b0d040d     	add	x13, x0, x13, lsl #1
     d48: 4f00847e     	movi.8h	v30, #3
     d4c: 4f00047f     	movi.4s	v31, #3
     d50: 4cdfa540     	ld1.8h	{ v0, v1 }, [x10], #32
     d54: 4cdfa562     	ld1.8h	{ v2, v3 }, [x11], #32
     d58: 4cdfa584     	ld1.8h	{ v4, v5 }, [x12], #32
     d5c: 4cdfa486     	ld1.8h	{ v6, v7 }, [x4], #32
     d60: 4cdf68f0     	ld1.4s	{ v16, v17, v18 }, [x7], #48
     d64: 4cdf6913     	ld1.4s	{ v19, v20, v21 }, [x8], #48
     d68: 4cdf6936     	ld1.4s	{ v22, v23, v24 }, [x9], #48
     d6c: 4cdf6879     	ld1.4s	{ v25, v26, v27 }, [x3], #48
     d70: 6e011008     	ext.16b	v8, v0, v1, #2
     d74: 6e031049     	ext.16b	v9, v2, v3, #2
     d78: 6e05108a     	ext.16b	v10, v4, v5, #2
     d7c: 6e01200b     	ext.16b	v11, v0, v1, #4
     d80: 6e03204c     	ext.16b	v12, v2, v3, #4
     d84: 6e05208d     	ext.16b	v13, v4, v5, #4
     d88: 4e68844e     	add.8h	v14, v2, v8
     d8c: 4e6a852f     	add.8h	v15, v9, v10
     d90: 4e6b841c     	add.8h	v28, v0, v11
     d94: 4e6c85ce     	add.8h	v14, v14, v12
     d98: 4e6d849d     	add.8h	v29, v4, v13
     d9c: 6e0710c8     	ext.16b	v8, v6, v7, #2
     da0: 6e0720cb     	ext.16b	v11, v6, v7, #4
     da4: 4e6f85ce     	add.8h	v14, v14, v15
     da8: 4e7d878f     	add.8h	v15, v28, v29
     dac: 4e69849c     	add.8h	v28, v4, v9
     db0: 4e68855d     	add.8h	v29, v10, v8
     db4: 4e6c8442     	add.8h	v2, v2, v12
     db8: 4e6d879c     	add.8h	v28, v28, v13
     dbc: 4e6b84c4     	add.8h	v4, v6, v11
     dc0: 4e7d8780     	add.8h	v0, v28, v29
     dc4: 4e648442     	add.8h	v2, v2, v4
     dc8: 4f1255c4     	shl.8h	v4, v14, #2
     dcc: 4e7e95e4     	mla.8h	v4, v15, v30
     dd0: 4f125400     	shl.8h	v0, v0, #2
     dd4: 4e7e9440     	mla.8h	v0, v2, v30
     dd8: 6e112208     	ext.16b	v8, v16, v17, #4
     ddc: 6e122229     	ext.16b	v9, v17, v18, #4
     de0: 6e11420a     	ext.16b	v10, v16, v17, #8
     de4: 6e12422b     	ext.16b	v11, v17, v18, #8
     de8: 6e14226c     	ext.16b	v12, v19, v20, #4
     dec: 6e15228d     	ext.16b	v13, v20, v21, #4
     df0: 4eb38508     	add.4s	v8, v8, v19
     df4: 4eb48529     	add.4s	v9, v9, v20
     df8: 4eaa8610     	add.4s	v16, v16, v10
     dfc: 4eab8631     	add.4s	v17, v17, v11
     e00: 6e14426e     	ext.16b	v14, v19, v20, #8
     e04: 6e15428f     	ext.16b	v15, v20, v21, #8
     e08: 4eb68610     	add.4s	v16, v16, v22
     e0c: 4eb78631     	add.4s	v17, v17, v23
     e10: 4eae859c     	add.4s	v28, v12, v14
     e14: 4eaf85bd     	add.4s	v29, v13, v15
     e18: 6e1722ca     	ext.16b	v10, v22, v23, #4
     e1c: 6e1822eb     	ext.16b	v11, v23, v24, #4
     e20: 4ebc8508     	add.4s	v8, v8, v28
     e24: 4ebd8529     	add.4s	v9, v9, v29
     e28: 4eae8673     	add.4s	v19, v19, v14
     e2c: 4eaf8694     	add.4s	v20, v20, v15
     e30: 4eac86ce     	add.4s	v14, v22, v12
     e34: 4ead86ef     	add.4s	v15, v23, v13
     e38: 6e1742cc     	ext.16b	v12, v22, v23, #8
     e3c: 6e1842ed     	ext.16b	v13, v23, v24, #8
     e40: 6e1a233c     	ext.16b	v28, v25, v26, #4
     e44: 6e1b235d     	ext.16b	v29, v26, v27, #4
     e48: 4eaa8508     	add.4s	v8, v8, v10
     e4c: 4eab8529     	add.4s	v9, v9, v11
     e50: 4eaa85ce     	add.4s	v14, v14, v10
     e54: 4eab85ef     	add.4s	v15, v15, v11
     e58: 6e1a432a     	ext.16b	v10, v25, v26, #8
     e5c: 6e1b434b     	ext.16b	v11, v26, v27, #8
     e60: 4eac8610     	add.4s	v16, v16, v12
     e64: 4ead8631     	add.4s	v17, v17, v13
     e68: 4ebc858c     	add.4s	v12, v12, v28
     e6c: 4ebd85ad     	add.4s	v13, v13, v29
     e70: 4eaa8739     	add.4s	v25, v25, v10
     e74: 4eab875a     	add.4s	v26, v26, v11
     e78: 4eac85ce     	add.4s	v14, v14, v12
     e7c: 4ead85ef     	add.4s	v15, v15, v13
     e80: 4eb98673     	add.4s	v19, v19, v25
     e84: 4eba8694     	add.4s	v20, v20, v26
     e88: 0cdf7039     	ld1.8b	{ v25 }, [x1], #8
     e8c: 0cdf705a     	ld1.8b	{ v26 }, [x2], #8
     e90: 4f225508     	shl.4s	v8, v8, #2
     e94: 4f225529     	shl.4s	v9, v9, #2
     e98: 4ebf9608     	mla.4s	v8, v16, v31
     e9c: 4ebf9629     	mla.4s	v9, v17, v31
     ea0: 2f08a739     	ushll.8h	v25, v25, #0
     ea4: 2f08a75a     	ushll.8h	v26, v26, #0
     ea8: 4f2255ce     	shl.4s	v14, v14, #2
     eac: 4f2255ef     	shl.4s	v15, v15, #2
     eb0: 4ebf966e     	mla.4s	v14, v19, v31
     eb4: 4ebf968f     	mla.4s	v15, v20, v31
     eb8: 2e798088     	umlal.4s	v8, v4, v25
     ebc: 6e798089     	umlal2.4s	v9, v4, v25
     ec0: 2e7a800e     	umlal.4s	v14, v0, v26
     ec4: 6e7a800f     	umlal2.4s	v15, v0, v26
     ec8: 4ea11c20     	mov.16b	v0, v1
     ecc: 0f178d08     	rshrn.4h	v8, v8, #9
     ed0: 4f178d28     	rshrn2.8h	v8, v9, #9
     ed4: 4ea31c62     	mov.16b	v2, v3
     ed8: 0f178dce     	rshrn.4h	v14, v14, #9
     edc: 4f178dee     	rshrn2.8h	v14, v15, #9
     ee0: 710020a5     	subs	w5, w5, #8
     ee4: 4ea51ca4     	mov.16b	v4, v5
     ee8: 4c9f7408     	st1.8h	{ v8 }, [x0], #16
     eec: 4ea71ce6     	mov.16b	v6, v7
     ef0: 4c9f75ae     	st1.8h	{ v14 }, [x13], #16
     ef4: 540001cd     	b.le	0xf2c <sgr_finish_filter1_2rows_8bpc_neon+0x218>
     ef8: 4eb21e50     	mov.16b	v16, v18
     efc: 4eb51eb3     	mov.16b	v19, v21
     f00: 4eb81f16     	mov.16b	v22, v24
     f04: 4ebb1f79     	mov.16b	v25, v27
     f08: 4cdf7541     	ld1.8h	{ v1 }, [x10], #16
     f0c: 4cdf7563     	ld1.8h	{ v3 }, [x11], #16
     f10: 4cdf7585     	ld1.8h	{ v5 }, [x12], #16
     f14: 4cdf7487     	ld1.8h	{ v7 }, [x4], #16
     f18: 4cdfa8f1     	ld1.4s	{ v17, v18 }, [x7], #32
     f1c: 4cdfa914     	ld1.4s	{ v20, v21 }, [x8], #32
     f20: 4cdfa937     	ld1.4s	{ v23, v24 }, [x9], #32
     f24: 4cdfa87a     	ld1.4s	{ v26, v27 }, [x3], #32
     f28: 17ffff92     	b	0xd70 <sgr_finish_filter1_2rows_8bpc_neon+0x5c>
     f2c: 6d433fee     	ldp	d14, d15, [sp, #48]
     f30: 6d4237ec     	ldp	d12, d13, [sp, #32]
     f34: 6d412fea     	ldp	d10, d11, [sp, #16]
     f38: 6cc427e8     	ldp	d8, d9, [sp], #64
     f3c: d65f03c0     	ret

0000000000000f40 <sgr_finish_weighted1_8bpc_neon>:
     f40: a9402027     	ldp	x7, x8, [x1]
     f44: f9400821     	ldr	x1, [x1, #16]
     f48: a9402849     	ldp	x9, x10, [x2]
     f4c: f9400842     	ldr	x2, [x2, #16]
     f50: 4e020c9f     	dup.8h	v31, w4
     f54: 4e020cbe     	dup.8h	v30, w5
     f58: 4f008466     	movi.8h	v6, #3
     f5c: 4f000467     	movi.4s	v7, #3
     f60: 4cdfa520     	ld1.8h	{ v0, v1 }, [x9], #32
     f64: 4cdfa542     	ld1.8h	{ v2, v3 }, [x10], #32
     f68: 4cdfa444     	ld1.8h	{ v4, v5 }, [x2], #32
     f6c: 4cdf68f0     	ld1.4s	{ v16, v17, v18 }, [x7], #48
     f70: 4cdf6913     	ld1.4s	{ v19, v20, v21 }, [x8], #48
     f74: 4cdf6836     	ld1.4s	{ v22, v23, v24 }, [x1], #48
     f78: 6e011019     	ext.16b	v25, v0, v1, #2
     f7c: 6e03105a     	ext.16b	v26, v2, v3, #2
     f80: 6e05109b     	ext.16b	v27, v4, v5, #2
     f84: 6e01201c     	ext.16b	v28, v0, v1, #4
     f88: 6e03205d     	ext.16b	v29, v2, v3, #4
     f8c: 4e798442     	add.8h	v2, v2, v25
     f90: 6e052099     	ext.16b	v25, v4, v5, #4
     f94: 4e7b875a     	add.8h	v26, v26, v27
     f98: 4e7c8400     	add.8h	v0, v0, v28
     f9c: 4e7a8442     	add.8h	v2, v2, v26
     fa0: 4e798484     	add.8h	v4, v4, v25
     fa4: 4e7d8442     	add.8h	v2, v2, v29
     fa8: 4e648400     	add.8h	v0, v0, v4
     fac: 6e112219     	ext.16b	v25, v16, v17, #4
     fb0: 6e12223a     	ext.16b	v26, v17, v18, #4
     fb4: 4f125442     	shl.8h	v2, v2, #2
     fb8: 6e11421b     	ext.16b	v27, v16, v17, #8
     fbc: 6e12423c     	ext.16b	v28, v17, v18, #8
     fc0: 6e14227d     	ext.16b	v29, v19, v20, #4
     fc4: 6e152284     	ext.16b	v4, v20, v21, #4
     fc8: 4e669402     	mla.8h	v2, v0, v6
     fcc: 4eb38739     	add.4s	v25, v25, v19
     fd0: 4eb4875a     	add.4s	v26, v26, v20
     fd4: 4ebb8610     	add.4s	v16, v16, v27
     fd8: 4ebc8631     	add.4s	v17, v17, v28
     fdc: 6e14427b     	ext.16b	v27, v19, v20, #8
     fe0: 6e15429c     	ext.16b	v28, v20, v21, #8
     fe4: 4eb68610     	add.4s	v16, v16, v22
     fe8: 4eb78631     	add.4s	v17, v17, v23
     fec: 4ebb87bd     	add.4s	v29, v29, v27
     ff0: 4ebc8484     	add.4s	v4, v4, v28
     ff4: 4ebd8739     	add.4s	v25, v25, v29
     ff8: 4ea4875a     	add.4s	v26, v26, v4
     ffc: 6e1722db     	ext.16b	v27, v22, v23, #4
    1000: 6e1822fc     	ext.16b	v28, v23, v24, #4
    1004: 6e1742dd     	ext.16b	v29, v22, v23, #8
    1008: 6e1842e4     	ext.16b	v4, v23, v24, #8
    100c: 0c407013     	ld1.8b	{ v19 }, [x0]
    1010: 4ebb8739     	add.4s	v25, v25, v27
    1014: 4ebc875a     	add.4s	v26, v26, v28
    1018: 4ebd8610     	add.4s	v16, v16, v29
    101c: 4ea48631     	add.4s	v17, v17, v4
    1020: 4f225739     	shl.4s	v25, v25, #2
    1024: 4f22575a     	shl.4s	v26, v26, #2
    1028: 4ea79619     	mla.4s	v25, v16, v7
    102c: 4ea7963a     	mla.4s	v26, v17, v7
    1030: 2f08a673     	ushll.8h	v19, v19, #0
    1034: 4ea11c20     	mov.16b	v0, v1
    1038: 2e738059     	umlal.4s	v25, v2, v19
    103c: 6e73805a     	umlal2.4s	v26, v2, v19
    1040: 4ea31c62     	mov.16b	v2, v3
    1044: 0f178f39     	rshrn.4h	v25, v25, #9
    1048: 4f178f59     	rshrn2.8h	v25, v26, #9
    104c: 71002063     	subs	w3, w3, #8
    1050: 4f145673     	shl.8h	v19, v19, #4
    1054: 4ea51ca4     	mov.16b	v4, v5
    1058: 6e738739     	sub.8h	v25, v25, v19
    105c: 4cdf7521     	ld1.8h	{ v1 }, [x9], #16
    1060: 2f17a67a     	ushll.4s	v26, v19, #7
    1064: 6f17a67b     	ushll2.4s	v27, v19, #7
    1068: 4cdf7543     	ld1.8h	{ v3 }, [x10], #16
    106c: 0e7f833a     	smlal.4s	v26, v25, v31
    1070: 4e7f833b     	smlal2.4s	v27, v25, v31
    1074: 4cdf7445     	ld1.8h	{ v5 }, [x2], #16
    1078: 0f158f5a     	rshrn.4h	v26, v26, #11
    107c: 4f158f7a     	rshrn2.8h	v26, v27, #11
    1080: 4eb21e50     	mov.16b	v16, v18
    1084: 2e212b5a     	sqxtun.8b	v26, v26
    1088: 4eb51eb3     	mov.16b	v19, v21
    108c: 4eb81f16     	mov.16b	v22, v24
    1090: 0c9f701a     	st1.8b	{ v26 }, [x0], #8
    1094: 540000ad     	b.le	0x10a8 <sgr_finish_weighted1_8bpc_neon+0x168>
    1098: 4cdfa8f1     	ld1.4s	{ v17, v18 }, [x7], #32
    109c: 4cdfa914     	ld1.4s	{ v20, v21 }, [x8], #32
    10a0: 4cdfa837     	ld1.4s	{ v23, v24 }, [x1], #32
    10a4: 17ffffb5     	b	0xf78 <sgr_finish_weighted1_8bpc_neon+0x38>
    10a8: d65f03c0     	ret

00000000000010ac <sgr_finish_filter2_2rows_8bpc_neon>:
    10ac: 6dbc27e8     	stp	d8, d9, [sp, #-64]!
    10b0: 6d012fea     	stp	d10, d11, [sp, #16]
    10b4: 6d0237ec     	stp	d12, d13, [sp, #32]
    10b8: 6d033fee     	stp	d14, d15, [sp, #48]
    10bc: a9401c63     	ldp	x3, x7, [x3]
    10c0: a9402084     	ldp	x4, x8, [x4]
    10c4: d280300a     	mov	x10, #384
    10c8: 710004df     	cmp	w6, #1
    10cc: 8b020022     	add	x2, x1, x2
    10d0: 9a82d022     	csel	x2, x1, x2, le
    10d4: 8b0a040a     	add	x10, x0, x10, lsl #1
    10d8: 4f0084a4     	movi.8h	v4, #5
    10dc: 4f0004a5     	movi.4s	v5, #5
    10e0: 4f0084c6     	movi.8h	v6, #6
    10e4: 4f0004c7     	movi.4s	v7, #6
    10e8: 4cdfa480     	ld1.8h	{ v0, v1 }, [x4], #32
    10ec: 4cdfa502     	ld1.8h	{ v2, v3 }, [x8], #32
    10f0: 4cdf6870     	ld1.4s	{ v16, v17, v18 }, [x3], #48
    10f4: 4cdf68f3     	ld1.4s	{ v19, v20, v21 }, [x7], #48
    10f8: 6e012018     	ext.16b	v24, v0, v1, #4
    10fc: 6e032059     	ext.16b	v25, v2, v3, #4
    1100: 6e011016     	ext.16b	v22, v0, v1, #2
    1104: 6e031057     	ext.16b	v23, v2, v3, #2
    1108: 4e788400     	add.8h	v0, v0, v24
    110c: 4e798459     	add.8h	v25, v2, v25
    1110: 4e7786c2     	add.8h	v2, v22, v23
    1114: 4e798400     	add.8h	v0, v0, v25
    1118: 4e649f28     	mul.8h	v8, v25, v4
    111c: 4e6696e8     	mla.8h	v8, v23, v6
    1120: 6e112216     	ext.16b	v22, v16, v17, #4
    1124: 6e122237     	ext.16b	v23, v17, v18, #4
    1128: 6e142278     	ext.16b	v24, v19, v20, #4
    112c: 6e152299     	ext.16b	v25, v20, v21, #4
    1130: 6e11421a     	ext.16b	v26, v16, v17, #8
    1134: 6e12423b     	ext.16b	v27, v17, v18, #8
    1138: 6e14427c     	ext.16b	v28, v19, v20, #8
    113c: 6e15429d     	ext.16b	v29, v20, v21, #8
    1140: 4e649c00     	mul.8h	v0, v0, v4
    1144: 4e669440     	mla.8h	v0, v2, v6
    1148: 0cdf703f     	ld1.8b	{ v31 }, [x1], #8
    114c: 0cdf705e     	ld1.8b	{ v30 }, [x2], #8
    1150: 4eba8610     	add.4s	v16, v16, v26
    1154: 4ebb8631     	add.4s	v17, v17, v27
    1158: 4ebc8673     	add.4s	v19, v19, v28
    115c: 4ebd8694     	add.4s	v20, v20, v29
    1160: 4eb38610     	add.4s	v16, v16, v19
    1164: 4eb48631     	add.4s	v17, v17, v20
    1168: 4ea59e69     	mul.4s	v9, v19, v5
    116c: 4ea79709     	mla.4s	v9, v24, v7
    1170: 4ea59e8a     	mul.4s	v10, v20, v5
    1174: 4ea7972a     	mla.4s	v10, v25, v7
    1178: 4eb886d6     	add.4s	v22, v22, v24
    117c: 4eb986f7     	add.4s	v23, v23, v25
    1180: 4ea59e10     	mul.4s	v16, v16, v5
    1184: 4ea796d0     	mla.4s	v16, v22, v7
    1188: 4ea59e31     	mul.4s	v17, v17, v5
    118c: 4ea796f1     	mla.4s	v17, v23, v7
    1190: 2f08a7ff     	ushll.8h	v31, v31, #0
    1194: 2f08a7de     	ushll.8h	v30, v30, #0
    1198: 2e7f8010     	umlal.4s	v16, v0, v31
    119c: 6e7f8011     	umlal2.4s	v17, v0, v31
    11a0: 2e7e8109     	umlal.4s	v9, v8, v30
    11a4: 6e7e810a     	umlal2.4s	v10, v8, v30
    11a8: 4ea11c20     	mov.16b	v0, v1
    11ac: 0f178e10     	rshrn.4h	v16, v16, #9
    11b0: 4f178e30     	rshrn2.8h	v16, v17, #9
    11b4: 0f188d29     	rshrn.4h	v9, v9, #8
    11b8: 4f188d49     	rshrn2.8h	v9, v10, #8
    11bc: 710020a5     	subs	w5, w5, #8
    11c0: 4ea31c62     	mov.16b	v2, v3
    11c4: 4c9f7410     	st1.8h	{ v16 }, [x0], #16
    11c8: 4c9f7549     	st1.8h	{ v9 }, [x10], #16
    11cc: 5400010d     	b.le	0x11ec <sgr_finish_filter2_2rows_8bpc_neon+0x140>
    11d0: 4eb21e50     	mov.16b	v16, v18
    11d4: 4eb51eb3     	mov.16b	v19, v21
    11d8: 4cdf7481     	ld1.8h	{ v1 }, [x4], #16
    11dc: 4cdf7503     	ld1.8h	{ v3 }, [x8], #16
    11e0: 4cdfa871     	ld1.4s	{ v17, v18 }, [x3], #32
    11e4: 4cdfa8f4     	ld1.4s	{ v20, v21 }, [x7], #32
    11e8: 17ffffc4     	b	0x10f8 <sgr_finish_filter2_2rows_8bpc_neon+0x4c>
    11ec: 6d433fee     	ldp	d14, d15, [sp, #48]
    11f0: 6d4237ec     	ldp	d12, d13, [sp, #32]
    11f4: 6d412fea     	ldp	d10, d11, [sp, #16]
    11f8: 6cc427e8     	ldp	d8, d9, [sp], #64
    11fc: d65f03c0     	ret

0000000000001200 <sgr_finish_weighted2_8bpc_neon>:
    1200: 6dbd27e8     	stp	d8, d9, [sp, #-48]!
    1204: fd000bea     	str	d10, [sp, #16]
    1208: 6d023fee     	stp	d14, d15, [sp, #32]
    120c: 4e020cce     	dup.8h	v14, w6
    1210: 4e020cef     	dup.8h	v15, w7
    1214: a9401c42     	ldp	x2, x7, [x2]
    1218: a9402063     	ldp	x3, x8, [x3]
    121c: 710004bf     	cmp	w5, #1
    1220: 8b010001     	add	x1, x0, x1
    1224: 9a81d041     	csel	x1, x2, x1, le
    1228: 4f0084a4     	movi.8h	v4, #5
    122c: 4f0004a5     	movi.4s	v5, #5
    1230: 4f0084c6     	movi.8h	v6, #6
    1234: 4f0004c7     	movi.4s	v7, #6
    1238: 4cdfa460     	ld1.8h	{ v0, v1 }, [x3], #32
    123c: 4cdfa502     	ld1.8h	{ v2, v3 }, [x8], #32
    1240: 4cdf6850     	ld1.4s	{ v16, v17, v18 }, [x2], #48
    1244: 4cdf68f3     	ld1.4s	{ v19, v20, v21 }, [x7], #48
    1248: 6e012018     	ext.16b	v24, v0, v1, #4
    124c: 6e032059     	ext.16b	v25, v2, v3, #4
    1250: 6e011016     	ext.16b	v22, v0, v1, #2
    1254: 6e031057     	ext.16b	v23, v2, v3, #2
    1258: 4e788400     	add.8h	v0, v0, v24
    125c: 4e798459     	add.8h	v25, v2, v25
    1260: 4e7786c2     	add.8h	v2, v22, v23
    1264: 4e798400     	add.8h	v0, v0, v25
    1268: 4e649f28     	mul.8h	v8, v25, v4
    126c: 4e6696e8     	mla.8h	v8, v23, v6
    1270: 6e112216     	ext.16b	v22, v16, v17, #4
    1274: 6e122237     	ext.16b	v23, v17, v18, #4
    1278: 6e142278     	ext.16b	v24, v19, v20, #4
    127c: 6e152299     	ext.16b	v25, v20, v21, #4
    1280: 6e11421a     	ext.16b	v26, v16, v17, #8
    1284: 6e12423b     	ext.16b	v27, v17, v18, #8
    1288: 6e14427c     	ext.16b	v28, v19, v20, #8
    128c: 6e15429d     	ext.16b	v29, v20, v21, #8
    1290: 4e649c00     	mul.8h	v0, v0, v4
    1294: 4e669440     	mla.8h	v0, v2, v6
    1298: 0c40701f     	ld1.8b	{ v31 }, [x0]
    129c: 0c40703e     	ld1.8b	{ v30 }, [x1]
    12a0: 4eba8610     	add.4s	v16, v16, v26
    12a4: 4ebb8631     	add.4s	v17, v17, v27
    12a8: 4ebc8673     	add.4s	v19, v19, v28
    12ac: 4ebd8694     	add.4s	v20, v20, v29
    12b0: 4eb38610     	add.4s	v16, v16, v19
    12b4: 4eb48631     	add.4s	v17, v17, v20
    12b8: 4ea59e69     	mul.4s	v9, v19, v5
    12bc: 4ea79709     	mla.4s	v9, v24, v7
    12c0: 4ea59e8a     	mul.4s	v10, v20, v5
    12c4: 4ea7972a     	mla.4s	v10, v25, v7
    12c8: 4eb886d6     	add.4s	v22, v22, v24
    12cc: 4eb986f7     	add.4s	v23, v23, v25
    12d0: 4ea59e10     	mul.4s	v16, v16, v5
    12d4: 4ea796d0     	mla.4s	v16, v22, v7
    12d8: 4ea59e31     	mul.4s	v17, v17, v5
    12dc: 4ea796f1     	mla.4s	v17, v23, v7
    12e0: 2f08a7ff     	ushll.8h	v31, v31, #0
    12e4: 2f08a7de     	ushll.8h	v30, v30, #0
    12e8: 2e7f8010     	umlal.4s	v16, v0, v31
    12ec: 6e7f8011     	umlal2.4s	v17, v0, v31
    12f0: 2e7e8109     	umlal.4s	v9, v8, v30
    12f4: 6e7e810a     	umlal2.4s	v10, v8, v30
    12f8: 4ea11c20     	mov.16b	v0, v1
    12fc: 0f178e10     	rshrn.4h	v16, v16, #9
    1300: 4f178e30     	rshrn2.8h	v16, v17, #9
    1304: 0f188d29     	rshrn.4h	v9, v9, #8
    1308: 4f188d49     	rshrn2.8h	v9, v10, #8
    130c: 71002084     	subs	w4, w4, #8
    1310: 4f1457ff     	shl.8h	v31, v31, #4
    1314: 4f1457de     	shl.8h	v30, v30, #4
    1318: 4ea31c62     	mov.16b	v2, v3
    131c: 6e7f8610     	sub.8h	v16, v16, v31
    1320: 6e7e8529     	sub.8h	v9, v9, v30
    1324: 4cdf7461     	ld1.8h	{ v1 }, [x3], #16
    1328: 2f17a7f6     	ushll.4s	v22, v31, #7
    132c: 6f17a7f7     	ushll2.4s	v23, v31, #7
    1330: 2f17a7d8     	ushll.4s	v24, v30, #7
    1334: 6f17a7d9     	ushll2.4s	v25, v30, #7
    1338: 4cdf7503     	ld1.8h	{ v3 }, [x8], #16
    133c: 0e6e8216     	smlal.4s	v22, v16, v14
    1340: 4e6e8217     	smlal2.4s	v23, v16, v14
    1344: 4eb21e50     	mov.16b	v16, v18
    1348: 0e6e8138     	smlal.4s	v24, v9, v14
    134c: 4e6e8139     	smlal2.4s	v25, v9, v14
    1350: 4eb51eb3     	mov.16b	v19, v21
    1354: 0f158ed6     	rshrn.4h	v22, v22, #11
    1358: 4f158ef6     	rshrn2.8h	v22, v23, #11
    135c: 0f158f17     	rshrn.4h	v23, v24, #11
    1360: 4f158f37     	rshrn2.8h	v23, v25, #11
    1364: 2e212ad6     	sqxtun.8b	v22, v22
    1368: 2e212af7     	sqxtun.8b	v23, v23
    136c: 0c9f7016     	st1.8b	{ v22 }, [x0], #8
    1370: 0c9f7037     	st1.8b	{ v23 }, [x1], #8
    1374: 5400008d     	b.le	0x1384 <sgr_finish_weighted2_8bpc_neon+0x184>
    1378: 4cdfa851     	ld1.4s	{ v17, v18 }, [x2], #32
    137c: 4cdfa8f4     	ld1.4s	{ v20, v21 }, [x7], #32
    1380: 17ffffb2     	b	0x1248 <sgr_finish_weighted2_8bpc_neon+0x48>
    1384: 6d423fee     	ldp	d14, d15, [sp, #32]
    1388: fd400bea     	ldr	d10, [sp, #16]
    138c: 6cc327e8     	ldp	d8, d9, [sp], #48
    1390: d65f03c0     	ret

0000000000001394 <sgr_weighted2_8bpc_neon>:
    1394: f94003e8     	ldr	x8, [sp]
    1398: 710008ff     	cmp	w7, #2
    139c: 8b01000a     	add	x10, x0, x1
    13a0: 8b03004b     	add	x11, x2, x3
    13a4: 910c008c     	add	x12, x4, #768
    13a8: 910c00ad     	add	x13, x5, #768
    13ac: 4d60c51e     	ld2r.8h	{ v30, v31 }, [x8]
    13b0: d280c008     	mov	x8, #1536
    13b4: d37ff821     	lsl	x1, x1, #1
    13b8: d37ff863     	lsl	x3, x3, #1
    13bc: 91001cc9     	add	x9, x6, #7
    13c0: 927df129     	and	x9, x9, #0xfffffffffffffff8
    13c4: cb090021     	sub	x1, x1, x9
    13c8: cb090063     	sub	x3, x3, x9
    13cc: cb090508     	sub	x8, x8, x9, lsl #1
    13d0: 2a0603e9     	mov	w9, w6
    13d4: 5400062b     	b.lt	0x1498 <sgr_weighted2_8bpc_neon+0x104>
    13d8: 0cdf7040     	ld1.8b	{ v0 }, [x2], #8
    13dc: 0cdf7170     	ld1.8b	{ v16 }, [x11], #8
    13e0: 4cdf7481     	ld1.8h	{ v1 }, [x4], #16
    13e4: 4cdf7591     	ld1.8h	{ v17 }, [x12], #16
    13e8: 4cdf74a2     	ld1.8h	{ v2 }, [x5], #16
    13ec: 4cdf75b2     	ld1.8h	{ v18 }, [x13], #16
    13f0: 710020c6     	subs	w6, w6, #8
    13f4: 2f0ca400     	ushll.8h	v0, v0, #4
    13f8: 2f0ca610     	ushll.8h	v16, v16, #4
    13fc: 6e608421     	sub.8h	v1, v1, v0
    1400: 6e608442     	sub.8h	v2, v2, v0
    1404: 6e708631     	sub.8h	v17, v17, v16
    1408: 6e708652     	sub.8h	v18, v18, v16
    140c: 2f17a403     	ushll.4s	v3, v0, #7
    1410: 6f17a404     	ushll2.4s	v4, v0, #7
    1414: 2f17a613     	ushll.4s	v19, v16, #7
    1418: 6f17a614     	ushll2.4s	v20, v16, #7
    141c: 0e7e8023     	smlal.4s	v3, v1, v30
    1420: 0e7f8043     	smlal.4s	v3, v2, v31
    1424: 4e7e8024     	smlal2.4s	v4, v1, v30
    1428: 4e7f8044     	smlal2.4s	v4, v2, v31
    142c: 0e7e8233     	smlal.4s	v19, v17, v30
    1430: 0e7f8253     	smlal.4s	v19, v18, v31
    1434: 4e7e8234     	smlal2.4s	v20, v17, v30
    1438: 4e7f8254     	smlal2.4s	v20, v18, v31
    143c: 0f158c63     	rshrn.4h	v3, v3, #11
    1440: 4f158c83     	rshrn2.8h	v3, v4, #11
    1444: 0f158e73     	rshrn.4h	v19, v19, #11
    1448: 4f158e93     	rshrn2.8h	v19, v20, #11
    144c: 2e212863     	sqxtun.8b	v3, v3
    1450: 2e212a73     	sqxtun.8b	v19, v19
    1454: 0c9f7003     	st1.8b	{ v3 }, [x0], #8
    1458: 0c9f7153     	st1.8b	{ v19 }, [x10], #8
    145c: 54fffbec     	b.gt	0x13d8 <sgr_weighted2_8bpc_neon+0x44>
    1460: 710008e7     	subs	w7, w7, #2
    1464: 710004ff     	cmp	w7, #1
    1468: 540003cb     	b.lt	0x14e0 <sgr_weighted2_8bpc_neon+0x14c>
    146c: 2a0903e6     	mov	w6, w9
    1470: 8b010000     	add	x0, x0, x1
    1474: 8b01014a     	add	x10, x10, x1
    1478: 8b030042     	add	x2, x2, x3
    147c: 8b03016b     	add	x11, x11, x3
    1480: 8b080084     	add	x4, x4, x8
    1484: 8b08018c     	add	x12, x12, x8
    1488: 8b0800a5     	add	x5, x5, x8
    148c: 8b0801ad     	add	x13, x13, x8
    1490: 54000040     	b.eq	0x1498 <sgr_weighted2_8bpc_neon+0x104>
    1494: 17ffffd1     	b	0x13d8 <sgr_weighted2_8bpc_neon+0x44>
    1498: 0cdf7040     	ld1.8b	{ v0 }, [x2], #8
    149c: 4cdf7481     	ld1.8h	{ v1 }, [x4], #16
    14a0: 4cdf74a2     	ld1.8h	{ v2 }, [x5], #16
    14a4: 710020c6     	subs	w6, w6, #8
    14a8: 2f0ca400     	ushll.8h	v0, v0, #4
    14ac: 6e608421     	sub.8h	v1, v1, v0
    14b0: 6e608442     	sub.8h	v2, v2, v0
    14b4: 2f17a403     	ushll.4s	v3, v0, #7
    14b8: 6f17a404     	ushll2.4s	v4, v0, #7
    14bc: 0e7e8023     	smlal.4s	v3, v1, v30
    14c0: 0e7f8043     	smlal.4s	v3, v2, v31
    14c4: 4e7e8024     	smlal2.4s	v4, v1, v30
    14c8: 4e7f8044     	smlal2.4s	v4, v2, v31
    14cc: 0f158c63     	rshrn.4h	v3, v3, #11
    14d0: 4f158c83     	rshrn2.8h	v3, v4, #11
    14d4: 2e212863     	sqxtun.8b	v3, v3
    14d8: 0c9f7003     	st1.8b	{ v3 }, [x0], #8
    14dc: 54fff7ec     	b.gt	0x13d8 <sgr_weighted2_8bpc_neon+0x44>
    14e0: d65f03c0     	ret
