
object-files/ca81b3637afdb6b5-cdef.o:	file format mach-o arm64

Disassembly of section __TEXT,__text:

0000000000000000 <ltmp0>:
       0: 71003cff     	cmp	w7, #15
       4: 540031e0     	b.eq	0x640 <cdef_padding8_edged_8bpc_neon>
       8: 4f04a41e     	movi.8h	v30, #128, lsl #8
       c: 4ebe1fdf     	mov.16b	v31, v30
      10: d1011000     	sub	x0, x0, #68
      14: 721e00ff     	tst	w7, #0x4
      18: 54000081     	b.ne	0x28 <ltmp0+0x28>
      1c: 4c9fa41e     	st1.8h	{ v30, v31 }, [x0], #32
      20: 4c9fa41e     	st1.8h	{ v30, v31 }, [x0], #32
      24: 14000047     	b	0x140 <ltmp0+0x140>
      28: 8b020089     	add	x9, x4, x2
      2c: 720000ff     	tst	w7, #0x1
      30: 540004a0     	b.eq	0xc4 <ltmp0+0xc4>
      34: d1000884     	sub	x4, x4, #2
      38: d1000929     	sub	x9, x9, #2
      3c: 721f00ff     	tst	w7, #0x2
      40: 54000200     	b.eq	0x80 <ltmp0+0x80>
      44: fd400080     	ldr	d0, [x4]
      48: bd400881     	ldr	s1, [x4, #8]
      4c: fd400122     	ldr	d2, [x9]
      50: bd400923     	ldr	s3, [x9, #8]
      54: 2f08a400     	ushll.8h	v0, v0, #0
      58: 2f08a421     	ushll.8h	v1, v1, #0
      5c: 2f08a442     	ushll.8h	v2, v2, #0
      60: 2f08a463     	ushll.8h	v3, v3, #0
      64: 3d800000     	str	q0, [x0]
      68: fd000801     	str	d1, [x0, #16]
      6c: 91008000     	add	x0, x0, #32
      70: 3d800002     	str	q2, [x0]
      74: fd000803     	str	d3, [x0, #16]
      78: 91008000     	add	x0, x0, #32
      7c: 14000031     	b	0x140 <ltmp0+0x140>
      80: fd400080     	ldr	d0, [x4]
      84: 7d401081     	ldr	h1, [x4, #8]
      88: fd400122     	ldr	d2, [x9]
      8c: 7d401123     	ldr	h3, [x9, #8]
      90: 2f08a400     	ushll.8h	v0, v0, #0
      94: 2f08a421     	ushll.8h	v1, v1, #0
      98: 2f08a442     	ushll.8h	v2, v2, #0
      9c: 2f08a463     	ushll.8h	v3, v3, #0
      a0: 3d800000     	str	q0, [x0]
      a4: bd001001     	str	s1, [x0, #16]
      a8: bd00141f     	str	s31, [x0, #20]
      ac: 91008000     	add	x0, x0, #32
      b0: 3d800002     	str	q2, [x0]
      b4: bd001003     	str	s3, [x0, #16]
      b8: bd00141f     	str	s31, [x0, #20]
      bc: 91008000     	add	x0, x0, #32
      c0: 14000020     	b	0x140 <ltmp0+0x140>
      c4: 721f00ff     	tst	w7, #0x2
      c8: 54000240     	b.eq	0x110 <ltmp0+0x110>
      cc: fd400080     	ldr	d0, [x4]
      d0: 7d401081     	ldr	h1, [x4, #8]
      d4: fd400122     	ldr	d2, [x9]
      d8: 7d401123     	ldr	h3, [x9, #8]
      dc: 2f08a400     	ushll.8h	v0, v0, #0
      e0: 2f08a421     	ushll.8h	v1, v1, #0
      e4: 2f08a442     	ushll.8h	v2, v2, #0
      e8: 2f08a463     	ushll.8h	v3, v3, #0
      ec: bd00001f     	str	s31, [x0]
      f0: 3c804000     	stur	q0, [x0, #4]
      f4: bd001401     	str	s1, [x0, #20]
      f8: 91008000     	add	x0, x0, #32
      fc: bd00001f     	str	s31, [x0]
     100: 3c804002     	stur	q2, [x0, #4]
     104: bd001403     	str	s3, [x0, #20]
     108: 91008000     	add	x0, x0, #32
     10c: 1400000d     	b	0x140 <ltmp0+0x140>
     110: fd400080     	ldr	d0, [x4]
     114: fd400121     	ldr	d1, [x9]
     118: 2f08a400     	ushll.8h	v0, v0, #0
     11c: 2f08a421     	ushll.8h	v1, v1, #0
     120: bd00001f     	str	s31, [x0]
     124: 3c804000     	stur	q0, [x0, #4]
     128: bd00141f     	str	s31, [x0, #20]
     12c: 91008000     	add	x0, x0, #32
     130: bd00001f     	str	s31, [x0]
     134: 3c804001     	stur	q1, [x0, #4]
     138: bd00141f     	str	s31, [x0, #20]
     13c: 91008000     	add	x0, x0, #32
     140: 720000ff     	tst	w7, #0x1
     144: 54000360     	b.eq	0x1b0 <ltmp0+0x1b0>
     148: 721f00ff     	tst	w7, #0x2
     14c: 540001c0     	b.eq	0x184 <ltmp0+0x184>
     150: 0ddf4060     	ld1.h	{ v0 }[0], [x3], #2
     154: 7d401022     	ldr	h2, [x1, #8]
     158: 0cc27021     	ld1.8b	{ v1 }, [x1], x2
     15c: 710004c6     	subs	w6, w6, #1
     160: 2f08a400     	ushll.8h	v0, v0, #0
     164: 2f08a421     	ushll.8h	v1, v1, #0
     168: 2f08a442     	ushll.8h	v2, v2, #0
     16c: bd000000     	str	s0, [x0]
     170: 3c804001     	stur	q1, [x0, #4]
     174: bd001402     	str	s2, [x0, #20]
     178: 91008000     	add	x0, x0, #32
     17c: 54fffeac     	b.gt	0x150 <ltmp0+0x150>
     180: 14000021     	b	0x204 <ltmp0+0x204>
     184: 0ddf4060     	ld1.h	{ v0 }[0], [x3], #2
     188: 0cc27021     	ld1.8b	{ v1 }, [x1], x2
     18c: 710004c6     	subs	w6, w6, #1
     190: 2f08a400     	ushll.8h	v0, v0, #0
     194: 2f08a421     	ushll.8h	v1, v1, #0
     198: bd000000     	str	s0, [x0]
     19c: 3c804001     	stur	q1, [x0, #4]
     1a0: bd00141f     	str	s31, [x0, #20]
     1a4: 91008000     	add	x0, x0, #32
     1a8: 54fffeec     	b.gt	0x184 <ltmp0+0x184>
     1ac: 14000016     	b	0x204 <ltmp0+0x204>
     1b0: 721f00ff     	tst	w7, #0x2
     1b4: 54000180     	b.eq	0x1e4 <ltmp0+0x1e4>
     1b8: 7d401021     	ldr	h1, [x1, #8]
     1bc: 0cc27020     	ld1.8b	{ v0 }, [x1], x2
     1c0: 710004c6     	subs	w6, w6, #1
     1c4: 2f08a400     	ushll.8h	v0, v0, #0
     1c8: 2f08a421     	ushll.8h	v1, v1, #0
     1cc: bd00001f     	str	s31, [x0]
     1d0: 3c804000     	stur	q0, [x0, #4]
     1d4: bd001401     	str	s1, [x0, #20]
     1d8: 91008000     	add	x0, x0, #32
     1dc: 54fffeec     	b.gt	0x1b8 <ltmp0+0x1b8>
     1e0: 14000009     	b	0x204 <ltmp0+0x204>
     1e4: 0cc27020     	ld1.8b	{ v0 }, [x1], x2
     1e8: 710004c6     	subs	w6, w6, #1
     1ec: 2f08a400     	ushll.8h	v0, v0, #0
     1f0: bd00001f     	str	s31, [x0]
     1f4: 3c804000     	stur	q0, [x0, #4]
     1f8: bd00141f     	str	s31, [x0, #20]
     1fc: 91008000     	add	x0, x0, #32
     200: 54ffff2c     	b.gt	0x1e4 <ltmp0+0x1e4>
     204: 721d00ff     	tst	w7, #0x8
     208: 54000081     	b.ne	0x218 <ltmp0+0x218>
     20c: 4c9fa41e     	st1.8h	{ v30, v31 }, [x0], #32
     210: 4c9fa41e     	st1.8h	{ v30, v31 }, [x0], #32
     214: d65f03c0     	ret
     218: 8b0200a9     	add	x9, x5, x2
     21c: 720000ff     	tst	w7, #0x1
     220: 54000460     	b.eq	0x2ac <ltmp0+0x2ac>
     224: d10008a5     	sub	x5, x5, #2
     228: d1000929     	sub	x9, x9, #2
     22c: 721f00ff     	tst	w7, #0x2
     230: 540001e0     	b.eq	0x26c <ltmp0+0x26c>
     234: fd4000a0     	ldr	d0, [x5]
     238: bd4008a1     	ldr	s1, [x5, #8]
     23c: fd400122     	ldr	d2, [x9]
     240: bd400923     	ldr	s3, [x9, #8]
     244: 2f08a400     	ushll.8h	v0, v0, #0
     248: 2f08a421     	ushll.8h	v1, v1, #0
     24c: 2f08a442     	ushll.8h	v2, v2, #0
     250: 2f08a463     	ushll.8h	v3, v3, #0
     254: 3d800000     	str	q0, [x0]
     258: fd000801     	str	d1, [x0, #16]
     25c: 91008000     	add	x0, x0, #32
     260: 3d800002     	str	q2, [x0]
     264: fd000803     	str	d3, [x0, #16]
     268: d65f03c0     	ret
     26c: fd4000a0     	ldr	d0, [x5]
     270: 7d4010a1     	ldr	h1, [x5, #8]
     274: fd400122     	ldr	d2, [x9]
     278: 7d401123     	ldr	h3, [x9, #8]
     27c: 2f08a400     	ushll.8h	v0, v0, #0
     280: 2f08a421     	ushll.8h	v1, v1, #0
     284: 2f08a442     	ushll.8h	v2, v2, #0
     288: 2f08a463     	ushll.8h	v3, v3, #0
     28c: 3d800000     	str	q0, [x0]
     290: bd001001     	str	s1, [x0, #16]
     294: bd00141f     	str	s31, [x0, #20]
     298: 91008000     	add	x0, x0, #32
     29c: 3d800002     	str	q2, [x0]
     2a0: bd001003     	str	s3, [x0, #16]
     2a4: bd00141f     	str	s31, [x0, #20]
     2a8: d65f03c0     	ret
     2ac: 721f00ff     	tst	w7, #0x2
     2b0: 54000220     	b.eq	0x2f4 <ltmp0+0x2f4>
     2b4: fd4000a0     	ldr	d0, [x5]
     2b8: 7d4010a1     	ldr	h1, [x5, #8]
     2bc: fd400122     	ldr	d2, [x9]
     2c0: 7d401123     	ldr	h3, [x9, #8]
     2c4: 2f08a400     	ushll.8h	v0, v0, #0
     2c8: 2f08a421     	ushll.8h	v1, v1, #0
     2cc: 2f08a442     	ushll.8h	v2, v2, #0
     2d0: 2f08a463     	ushll.8h	v3, v3, #0
     2d4: bd00001f     	str	s31, [x0]
     2d8: 3c804000     	stur	q0, [x0, #4]
     2dc: bd001401     	str	s1, [x0, #20]
     2e0: 91008000     	add	x0, x0, #32
     2e4: bd00001f     	str	s31, [x0]
     2e8: 3c804002     	stur	q2, [x0, #4]
     2ec: bd001403     	str	s3, [x0, #20]
     2f0: d65f03c0     	ret
     2f4: fd4000a0     	ldr	d0, [x5]
     2f8: fd400121     	ldr	d1, [x9]
     2fc: 2f08a400     	ushll.8h	v0, v0, #0
     300: 2f08a421     	ushll.8h	v1, v1, #0
     304: bd00001f     	str	s31, [x0]
     308: 3c804000     	stur	q0, [x0, #4]
     30c: bd00141f     	str	s31, [x0, #20]
     310: 91008000     	add	x0, x0, #32
     314: bd00001f     	str	s31, [x0]
     318: 3c804001     	stur	q1, [x0, #4]
     31c: bd00141f     	str	s31, [x0, #20]
     320: d65f03c0     	ret

0000000000000324 <cdef_padding4_8bpc_neon>:
     324: 71003cff     	cmp	w7, #15
     328: 54001cc0     	b.eq	0x6c0 <cdef_padding4_edged_8bpc_neon>
     32c: 4f04a41e     	movi.8h	v30, #128, lsl #8
     330: 4ebe1fdf     	mov.16b	v31, v30
     334: d1009000     	sub	x0, x0, #36
     338: 721e00ff     	tst	w7, #0x4
     33c: 54000061     	b.ne	0x348 <cdef_padding4_8bpc_neon+0x24>
     340: 4c9fa41e     	st1.8h	{ v30, v31 }, [x0], #32
     344: 14000047     	b	0x460 <cdef_padding4_8bpc_neon+0x13c>
     348: 8b020089     	add	x9, x4, x2
     34c: 720000ff     	tst	w7, #0x1
     350: 540004a0     	b.eq	0x3e4 <cdef_padding4_8bpc_neon+0xc0>
     354: d1000884     	sub	x4, x4, #2
     358: d1000929     	sub	x9, x9, #2
     35c: 721f00ff     	tst	w7, #0x2
     360: 54000200     	b.eq	0x3a0 <cdef_padding4_8bpc_neon+0x7c>
     364: bd400080     	ldr	s0, [x4]
     368: bd400481     	ldr	s1, [x4, #4]
     36c: bd400122     	ldr	s2, [x9]
     370: bd400523     	ldr	s3, [x9, #4]
     374: 2f08a400     	ushll.8h	v0, v0, #0
     378: 2f08a421     	ushll.8h	v1, v1, #0
     37c: 2f08a442     	ushll.8h	v2, v2, #0
     380: 2f08a463     	ushll.8h	v3, v3, #0
     384: fd000000     	str	d0, [x0]
     388: fd000401     	str	d1, [x0, #8]
     38c: 91004000     	add	x0, x0, #16
     390: fd000002     	str	d2, [x0]
     394: fd000403     	str	d3, [x0, #8]
     398: 91004000     	add	x0, x0, #16
     39c: 14000031     	b	0x460 <cdef_padding4_8bpc_neon+0x13c>
     3a0: bd400080     	ldr	s0, [x4]
     3a4: 7d400881     	ldr	h1, [x4, #4]
     3a8: bd400122     	ldr	s2, [x9]
     3ac: 7d400923     	ldr	h3, [x9, #4]
     3b0: 2f08a400     	ushll.8h	v0, v0, #0
     3b4: 2f08a421     	ushll.8h	v1, v1, #0
     3b8: 2f08a442     	ushll.8h	v2, v2, #0
     3bc: 2f08a463     	ushll.8h	v3, v3, #0
     3c0: fd000000     	str	d0, [x0]
     3c4: bd000801     	str	s1, [x0, #8]
     3c8: bd000c1f     	str	s31, [x0, #12]
     3cc: 91004000     	add	x0, x0, #16
     3d0: fd000002     	str	d2, [x0]
     3d4: bd000803     	str	s3, [x0, #8]
     3d8: bd000c1f     	str	s31, [x0, #12]
     3dc: 91004000     	add	x0, x0, #16
     3e0: 14000020     	b	0x460 <cdef_padding4_8bpc_neon+0x13c>
     3e4: 721f00ff     	tst	w7, #0x2
     3e8: 54000240     	b.eq	0x430 <cdef_padding4_8bpc_neon+0x10c>
     3ec: bd400080     	ldr	s0, [x4]
     3f0: 7d400881     	ldr	h1, [x4, #4]
     3f4: bd400122     	ldr	s2, [x9]
     3f8: 7d400923     	ldr	h3, [x9, #4]
     3fc: 2f08a400     	ushll.8h	v0, v0, #0
     400: 2f08a421     	ushll.8h	v1, v1, #0
     404: 2f08a442     	ushll.8h	v2, v2, #0
     408: 2f08a463     	ushll.8h	v3, v3, #0
     40c: bd00001f     	str	s31, [x0]
     410: fc004000     	stur	d0, [x0, #4]
     414: bd000c01     	str	s1, [x0, #12]
     418: 91004000     	add	x0, x0, #16
     41c: bd00001f     	str	s31, [x0]
     420: fc004002     	stur	d2, [x0, #4]
     424: bd000c03     	str	s3, [x0, #12]
     428: 91004000     	add	x0, x0, #16
     42c: 1400000d     	b	0x460 <cdef_padding4_8bpc_neon+0x13c>
     430: bd400080     	ldr	s0, [x4]
     434: bd400121     	ldr	s1, [x9]
     438: 2f08a400     	ushll.8h	v0, v0, #0
     43c: 2f08a421     	ushll.8h	v1, v1, #0
     440: bd00001f     	str	s31, [x0]
     444: fc004000     	stur	d0, [x0, #4]
     448: bd000c1f     	str	s31, [x0, #12]
     44c: 91004000     	add	x0, x0, #16
     450: bd00001f     	str	s31, [x0]
     454: fc004001     	stur	d1, [x0, #4]
     458: bd000c1f     	str	s31, [x0, #12]
     45c: 91004000     	add	x0, x0, #16
     460: 720000ff     	tst	w7, #0x1
     464: 54000360     	b.eq	0x4d0 <cdef_padding4_8bpc_neon+0x1ac>
     468: 721f00ff     	tst	w7, #0x2
     46c: 540001c0     	b.eq	0x4a4 <cdef_padding4_8bpc_neon+0x180>
     470: 0ddf4060     	ld1.h	{ v0 }[0], [x3], #2
     474: 7d400822     	ldr	h2, [x1, #4]
     478: 0dc28021     	ld1.s	{ v1 }[0], [x1], x2
     47c: 710004c6     	subs	w6, w6, #1
     480: 2f08a400     	ushll.8h	v0, v0, #0
     484: 2f08a421     	ushll.8h	v1, v1, #0
     488: 2f08a442     	ushll.8h	v2, v2, #0
     48c: bd000000     	str	s0, [x0]
     490: fc004001     	stur	d1, [x0, #4]
     494: bd000c02     	str	s2, [x0, #12]
     498: 91004000     	add	x0, x0, #16
     49c: 54fffeac     	b.gt	0x470 <cdef_padding4_8bpc_neon+0x14c>
     4a0: 14000021     	b	0x524 <cdef_padding4_8bpc_neon+0x200>
     4a4: 0ddf4060     	ld1.h	{ v0 }[0], [x3], #2
     4a8: 0dc28021     	ld1.s	{ v1 }[0], [x1], x2
     4ac: 710004c6     	subs	w6, w6, #1
     4b0: 2f08a400     	ushll.8h	v0, v0, #0
     4b4: 2f08a421     	ushll.8h	v1, v1, #0
     4b8: bd000000     	str	s0, [x0]
     4bc: fc004001     	stur	d1, [x0, #4]
     4c0: bd000c1f     	str	s31, [x0, #12]
     4c4: 91004000     	add	x0, x0, #16
     4c8: 54fffeec     	b.gt	0x4a4 <cdef_padding4_8bpc_neon+0x180>
     4cc: 14000016     	b	0x524 <cdef_padding4_8bpc_neon+0x200>
     4d0: 721f00ff     	tst	w7, #0x2
     4d4: 54000180     	b.eq	0x504 <cdef_padding4_8bpc_neon+0x1e0>
     4d8: 7d400821     	ldr	h1, [x1, #4]
     4dc: 0dc28020     	ld1.s	{ v0 }[0], [x1], x2
     4e0: 710004c6     	subs	w6, w6, #1
     4e4: 2f08a400     	ushll.8h	v0, v0, #0
     4e8: 2f08a421     	ushll.8h	v1, v1, #0
     4ec: bd00001f     	str	s31, [x0]
     4f0: fc004000     	stur	d0, [x0, #4]
     4f4: bd000c01     	str	s1, [x0, #12]
     4f8: 91004000     	add	x0, x0, #16
     4fc: 54fffeec     	b.gt	0x4d8 <cdef_padding4_8bpc_neon+0x1b4>
     500: 14000009     	b	0x524 <cdef_padding4_8bpc_neon+0x200>
     504: 0dc28020     	ld1.s	{ v0 }[0], [x1], x2
     508: 710004c6     	subs	w6, w6, #1
     50c: 2f08a400     	ushll.8h	v0, v0, #0
     510: bd00001f     	str	s31, [x0]
     514: fc004000     	stur	d0, [x0, #4]
     518: bd000c1f     	str	s31, [x0, #12]
     51c: 91004000     	add	x0, x0, #16
     520: 54ffff2c     	b.gt	0x504 <cdef_padding4_8bpc_neon+0x1e0>
     524: 721d00ff     	tst	w7, #0x8
     528: 54000061     	b.ne	0x534 <cdef_padding4_8bpc_neon+0x210>
     52c: 4c9fa41e     	st1.8h	{ v30, v31 }, [x0], #32
     530: d65f03c0     	ret
     534: 8b0200a9     	add	x9, x5, x2
     538: 720000ff     	tst	w7, #0x1
     53c: 54000460     	b.eq	0x5c8 <cdef_padding4_8bpc_neon+0x2a4>
     540: d10008a5     	sub	x5, x5, #2
     544: d1000929     	sub	x9, x9, #2
     548: 721f00ff     	tst	w7, #0x2
     54c: 540001e0     	b.eq	0x588 <cdef_padding4_8bpc_neon+0x264>
     550: bd4000a0     	ldr	s0, [x5]
     554: bd4004a1     	ldr	s1, [x5, #4]
     558: bd400122     	ldr	s2, [x9]
     55c: bd400523     	ldr	s3, [x9, #4]
     560: 2f08a400     	ushll.8h	v0, v0, #0
     564: 2f08a421     	ushll.8h	v1, v1, #0
     568: 2f08a442     	ushll.8h	v2, v2, #0
     56c: 2f08a463     	ushll.8h	v3, v3, #0
     570: fd000000     	str	d0, [x0]
     574: fd000401     	str	d1, [x0, #8]
     578: 91004000     	add	x0, x0, #16
     57c: fd000002     	str	d2, [x0]
     580: fd000403     	str	d3, [x0, #8]
     584: d65f03c0     	ret
     588: bd4000a0     	ldr	s0, [x5]
     58c: 7d4008a1     	ldr	h1, [x5, #4]
     590: bd400122     	ldr	s2, [x9]
     594: 7d400923     	ldr	h3, [x9, #4]
     598: 2f08a400     	ushll.8h	v0, v0, #0
     59c: 2f08a421     	ushll.8h	v1, v1, #0
     5a0: 2f08a442     	ushll.8h	v2, v2, #0
     5a4: 2f08a463     	ushll.8h	v3, v3, #0
     5a8: fd000000     	str	d0, [x0]
     5ac: bd000801     	str	s1, [x0, #8]
     5b0: bd000c1f     	str	s31, [x0, #12]
     5b4: 91004000     	add	x0, x0, #16
     5b8: fd000002     	str	d2, [x0]
     5bc: bd000803     	str	s3, [x0, #8]
     5c0: bd000c1f     	str	s31, [x0, #12]
     5c4: d65f03c0     	ret
     5c8: 721f00ff     	tst	w7, #0x2
     5cc: 54000220     	b.eq	0x610 <cdef_padding4_8bpc_neon+0x2ec>
     5d0: bd4000a0     	ldr	s0, [x5]
     5d4: 7d4008a1     	ldr	h1, [x5, #4]
     5d8: bd400122     	ldr	s2, [x9]
     5dc: 7d400923     	ldr	h3, [x9, #4]
     5e0: 2f08a400     	ushll.8h	v0, v0, #0
     5e4: 2f08a421     	ushll.8h	v1, v1, #0
     5e8: 2f08a442     	ushll.8h	v2, v2, #0
     5ec: 2f08a463     	ushll.8h	v3, v3, #0
     5f0: bd00001f     	str	s31, [x0]
     5f4: fc004000     	stur	d0, [x0, #4]
     5f8: bd000c01     	str	s1, [x0, #12]
     5fc: 91004000     	add	x0, x0, #16
     600: bd00001f     	str	s31, [x0]
     604: fc004002     	stur	d2, [x0, #4]
     608: bd000c03     	str	s3, [x0, #12]
     60c: d65f03c0     	ret
     610: bd4000a0     	ldr	s0, [x5]
     614: bd400121     	ldr	s1, [x9]
     618: 2f08a400     	ushll.8h	v0, v0, #0
     61c: 2f08a421     	ushll.8h	v1, v1, #0
     620: bd00001f     	str	s31, [x0]
     624: fc004000     	stur	d0, [x0, #4]
     628: bd000c1f     	str	s31, [x0, #12]
     62c: 91004000     	add	x0, x0, #16
     630: bd00001f     	str	s31, [x0]
     634: fc004001     	stur	d1, [x0, #4]
     638: bd000c1f     	str	s31, [x0, #12]
     63c: d65f03c0     	ret

0000000000000640 <cdef_padding8_edged_8bpc_neon>:
     640: d1000884     	sub	x4, x4, #2
     644: d10008a5     	sub	x5, x5, #2
     648: d1008800     	sub	x0, x0, #34
     64c: 8b020089     	add	x9, x4, x2
     650: fd400080     	ldr	d0, [x4]
     654: bd400881     	ldr	s1, [x4, #8]
     658: fd400122     	ldr	d2, [x9]
     65c: bd400923     	ldr	s3, [x9, #8]
     660: fd000000     	str	d0, [x0]
     664: bd000801     	str	s1, [x0, #8]
     668: fd000802     	str	d2, [x0, #16]
     66c: bd001803     	str	s3, [x0, #24]
     670: 91008000     	add	x0, x0, #32
     674: 0ddf4060     	ld1.h	{ v0 }[0], [x3], #2
     678: 7d401022     	ldr	h2, [x1, #8]
     67c: 0cc27021     	ld1.8b	{ v1 }, [x1], x2
     680: 710004c6     	subs	w6, w6, #1
     684: 7d000000     	str	h0, [x0]
     688: fc002001     	stur	d1, [x0, #2]
     68c: 7d001402     	str	h2, [x0, #10]
     690: 91004000     	add	x0, x0, #16
     694: 54ffff0c     	b.gt	0x674 <cdef_padding8_edged_8bpc_neon+0x34>
     698: 8b0200a9     	add	x9, x5, x2
     69c: fd4000a0     	ldr	d0, [x5]
     6a0: bd4008a1     	ldr	s1, [x5, #8]
     6a4: fd400122     	ldr	d2, [x9]
     6a8: bd400923     	ldr	s3, [x9, #8]
     6ac: fd000000     	str	d0, [x0]
     6b0: bd000801     	str	s1, [x0, #8]
     6b4: fd000802     	str	d2, [x0, #16]
     6b8: bd001803     	str	s3, [x0, #24]
     6bc: d65f03c0     	ret

00000000000006c0 <cdef_padding4_edged_8bpc_neon>:
     6c0: d1000884     	sub	x4, x4, #2
     6c4: d10008a5     	sub	x5, x5, #2
     6c8: d1004800     	sub	x0, x0, #18
     6cc: fd400080     	ldr	d0, [x4]
     6d0: fc626881     	ldr	d1, [x4, x2]
     6d4: 0c9fa000     	st1.8b	{ v0, v1 }, [x0], #16
     6d8: 0ddf4060     	ld1.h	{ v0 }[0], [x3], #2
     6dc: 7d400822     	ldr	h2, [x1, #4]
     6e0: 0dc28021     	ld1.s	{ v1 }[0], [x1], x2
     6e4: 710004c6     	subs	w6, w6, #1
     6e8: 7d000000     	str	h0, [x0]
     6ec: bc002001     	stur	s1, [x0, #2]
     6f0: 7d000c02     	str	h2, [x0, #6]
     6f4: 91002000     	add	x0, x0, #8
     6f8: 54ffff0c     	b.gt	0x6d8 <cdef_padding4_edged_8bpc_neon+0x18>
     6fc: fd4000a0     	ldr	d0, [x5]
     700: fc6268a1     	ldr	d1, [x5, x2]
     704: 0c9fa000     	st1.8b	{ v0, v1 }, [x0], #16
     708: d65f03c0     	ret

000000000000070c <cdef_filter8_pri_8bpc_neon>:
     70c: b94003e8     	ldr	w8, [sp]
     710: 71003d1f     	cmp	w8, #15
     714: 54007560     	b.eq	0x15c0 <cdef_filter8_pri_edged_8bpc_neon>
     718: 90000008     	adrp	x8, 0x0 <cdef_filter8_pri_8bpc_neon+0xc>
     71c: 91000108     	add	x8, x8, #0
     720: 12000069     	and	w9, w3, #0x1
     724: 8b294508     	add	x8, x8, w9, uxtw #1
     728: 90000009     	adrp	x9, 0x0 <cdef_filter8_pri_8bpc_neon+0x1c>
     72c: 91000129     	add	x9, x9, #0
     730: 8b254525     	add	x5, x9, w5, uxtw #1
     734: 0f0085fe     	movi.4h	v30, #15
     738: 0e020cdc     	dup.4h	v28, w6
     73c: 4e020c79     	dup.8h	v25, w3
     740: 0e5b2b38     	trn1.4h	v24, v25, v27
     744: 2e604b18     	clz.4h	v24, v24
     748: 2e7887d8     	sub.4h	v24, v30, v24
     74c: 2e782f98     	uqsub.4h	v24, v28, v24
     750: 2e60bb18     	neg.4h	v24, v24
     754: 4e020718     	dup.8h	v24, v24[0]
     758: 4c407440     	ld1.8h	{ v0 }, [x2]
     75c: 4f008401     	movi.8h	v1, #0
     760: 5280004b     	mov	w11, #2
     764: 394000a9     	ldrb	w9, [x5]
     768: 8b298446     	add	x6, x2, w9, sxtb #1
     76c: cb298449     	sub	x9, x2, w9, sxtb #1
     770: 4c4074c4     	ld1.8h	{ v4 }, [x6]
     774: 4c407525     	ld1.8h	{ v5 }, [x9]
     778: 3940010a     	ldrb	w10, [x8]
     77c: 6e647410     	uabd.8h	v16, v0, v4
     780: 6e657414     	uabd.8h	v20, v0, v5
     784: 6e784611     	ushl.8h	v17, v16, v24
     788: 6e784695     	ushl.8h	v21, v20, v24
     78c: 6e712f31     	uqsub.8h	v17, v25, v17
     790: 6e752f35     	uqsub.8h	v21, v25, v21
     794: 6e608492     	sub.8h	v18, v4, v0
     798: 6e6084b6     	sub.8h	v22, v5, v0
     79c: 6e60ba30     	neg.8h	v16, v17
     7a0: 6e60bab4     	neg.8h	v20, v21
     7a4: 4e716e52     	smin.8h	v18, v18, v17
     7a8: 4e756ed6     	smin.8h	v22, v22, v21
     7ac: 4e020d53     	dup.8h	v19, w10
     7b0: 4e706652     	smax.8h	v18, v18, v16
     7b4: 4e7466d6     	smax.8h	v22, v22, v20
     7b8: 4e739641     	mla.8h	v1, v18, v19
     7bc: 4e7396c1     	mla.8h	v1, v22, v19
     7c0: 910004a5     	add	x5, x5, #1
     7c4: 7100056b     	subs	w11, w11, #1
     7c8: 91000508     	add	x8, x8, #1
     7cc: 54fffcc1     	b.ne	0x764 <cdef_filter8_pri_8bpc_neon+0x58>
     7d0: 4e60a824     	cmlt.8h	v4, v1, #0
     7d4: 4e648421     	add.8h	v1, v1, v4
     7d8: 4f1c2421     	srshr.8h	v1, v1, #4
     7dc: 4e618400     	add.8h	v0, v0, v1
     7e0: 0e212800     	xtn.8b	v0, v0
     7e4: 91008042     	add	x2, x2, #32
     7e8: 710004e7     	subs	w7, w7, #1
     7ec: 0c817000     	st1.8b	{ v0 }, [x0], x1
     7f0: d10008a5     	sub	x5, x5, #2
     7f4: d1000908     	sub	x8, x8, #2
     7f8: 54fffb0c     	b.gt	0x758 <cdef_filter8_pri_8bpc_neon+0x4c>
     7fc: d65f03c0     	ret

0000000000000800 <cdef_filter8_sec_8bpc_neon>:
     800: b94003e8     	ldr	w8, [sp]
     804: 71003d1f     	cmp	w8, #15
     808: 54007620     	b.eq	0x16cc <cdef_filter8_sec_edged_8bpc_neon>
     80c: 90000009     	adrp	x9, 0x0 <cdef_filter8_sec_8bpc_neon+0xc>
     810: 91000129     	add	x9, x9, #0
     814: 8b254525     	add	x5, x9, w5, uxtw #1
     818: 0f0085fe     	movi.4h	v30, #15
     81c: 0e020cdc     	dup.4h	v28, w6
     820: 4e020c9b     	dup.8h	v27, w4
     824: 0e5b2b38     	trn1.4h	v24, v25, v27
     828: 2e604b18     	clz.4h	v24, v24
     82c: 2e7887d8     	sub.4h	v24, v30, v24
     830: 2e782f98     	uqsub.4h	v24, v28, v24
     834: 2e60bb18     	neg.4h	v24, v24
     838: 4e06071a     	dup.8h	v26, v24[1]
     83c: 4c407440     	ld1.8h	{ v0 }, [x2]
     840: 4f008401     	movi.8h	v1, #0
     844: 5280004b     	mov	w11, #2
     848: 910010a5     	add	x5, x5, #4
     84c: 394000a9     	ldrb	w9, [x5]
     850: 8b298446     	add	x6, x2, w9, sxtb #1
     854: cb298449     	sub	x9, x2, w9, sxtb #1
     858: 4c4074c6     	ld1.8h	{ v6 }, [x6]
     85c: 4c407527     	ld1.8h	{ v7 }, [x9]
     860: 910020a5     	add	x5, x5, #8
     864: 394000a9     	ldrb	w9, [x5]
     868: 8b298446     	add	x6, x2, w9, sxtb #1
     86c: cb298449     	sub	x9, x2, w9, sxtb #1
     870: 4c4074c4     	ld1.8h	{ v4 }, [x6]
     874: 4c407525     	ld1.8h	{ v5 }, [x9]
     878: 6e667410     	uabd.8h	v16, v0, v6
     87c: 6e677414     	uabd.8h	v20, v0, v7
     880: 6e7a4611     	ushl.8h	v17, v16, v26
     884: 6e7a4695     	ushl.8h	v21, v20, v26
     888: 6e712f71     	uqsub.8h	v17, v27, v17
     88c: 6e752f75     	uqsub.8h	v21, v27, v21
     890: 6e6084d2     	sub.8h	v18, v6, v0
     894: 6e6084f6     	sub.8h	v22, v7, v0
     898: 6e60ba30     	neg.8h	v16, v17
     89c: 6e60bab4     	neg.8h	v20, v21
     8a0: 4e716e52     	smin.8h	v18, v18, v17
     8a4: 4e756ed6     	smin.8h	v22, v22, v21
     8a8: 4e020d73     	dup.8h	v19, w11
     8ac: 4e706652     	smax.8h	v18, v18, v16
     8b0: 4e7466d6     	smax.8h	v22, v22, v20
     8b4: 4e739641     	mla.8h	v1, v18, v19
     8b8: 4e7396c1     	mla.8h	v1, v22, v19
     8bc: 6e647410     	uabd.8h	v16, v0, v4
     8c0: 6e657414     	uabd.8h	v20, v0, v5
     8c4: 6e7a4611     	ushl.8h	v17, v16, v26
     8c8: 6e7a4695     	ushl.8h	v21, v20, v26
     8cc: 6e712f71     	uqsub.8h	v17, v27, v17
     8d0: 6e752f75     	uqsub.8h	v21, v27, v21
     8d4: 6e608492     	sub.8h	v18, v4, v0
     8d8: 6e6084b6     	sub.8h	v22, v5, v0
     8dc: 6e60ba30     	neg.8h	v16, v17
     8e0: 6e60bab4     	neg.8h	v20, v21
     8e4: 4e716e52     	smin.8h	v18, v18, v17
     8e8: 4e756ed6     	smin.8h	v22, v22, v21
     8ec: 4e020d73     	dup.8h	v19, w11
     8f0: 4e706652     	smax.8h	v18, v18, v16
     8f4: 4e7466d6     	smax.8h	v22, v22, v20
     8f8: 4e739641     	mla.8h	v1, v18, v19
     8fc: 4e7396c1     	mla.8h	v1, v22, v19
     900: d1002ca5     	sub	x5, x5, #11
     904: 7100056b     	subs	w11, w11, #1
     908: 54fffa01     	b.ne	0x848 <cdef_filter8_sec_8bpc_neon+0x48>
     90c: 4e60a824     	cmlt.8h	v4, v1, #0
     910: 4e648421     	add.8h	v1, v1, v4
     914: 4f1c2421     	srshr.8h	v1, v1, #4
     918: 4e618400     	add.8h	v0, v0, v1
     91c: 0e212800     	xtn.8b	v0, v0
     920: 91008042     	add	x2, x2, #32
     924: 710004e7     	subs	w7, w7, #1
     928: 0c817000     	st1.8b	{ v0 }, [x0], x1
     92c: d10008a5     	sub	x5, x5, #2
     930: 54fff86c     	b.gt	0x83c <cdef_filter8_sec_8bpc_neon+0x3c>
     934: d65f03c0     	ret

0000000000000938 <cdef_filter8_pri_sec_8bpc_neon>:
     938: b94003e8     	ldr	w8, [sp]
     93c: 71003d1f     	cmp	w8, #15
     940: 54007760     	b.eq	0x182c <cdef_filter8_pri_sec_edged_8bpc_neon>
     944: 90000008     	adrp	x8, 0x0 <cdef_filter8_pri_sec_8bpc_neon+0xc>
     948: 91000108     	add	x8, x8, #0
     94c: 12000069     	and	w9, w3, #0x1
     950: 8b294508     	add	x8, x8, w9, uxtw #1
     954: 90000009     	adrp	x9, 0x0 <cdef_filter8_pri_sec_8bpc_neon+0x1c>
     958: 91000129     	add	x9, x9, #0
     95c: 8b254525     	add	x5, x9, w5, uxtw #1
     960: 0f0085fe     	movi.4h	v30, #15
     964: 0e020cdc     	dup.4h	v28, w6
     968: 4e020c79     	dup.8h	v25, w3
     96c: 4e020c9b     	dup.8h	v27, w4
     970: 0e5b2b38     	trn1.4h	v24, v25, v27
     974: 2e604b18     	clz.4h	v24, v24
     978: 2e7887d8     	sub.4h	v24, v30, v24
     97c: 2e782f98     	uqsub.4h	v24, v28, v24
     980: 2e60bb18     	neg.4h	v24, v24
     984: 4e06071a     	dup.8h	v26, v24[1]
     988: 4e020718     	dup.8h	v24, v24[0]
     98c: 4c407440     	ld1.8h	{ v0 }, [x2]
     990: 4f008401     	movi.8h	v1, #0
     994: 4ea01c02     	mov.16b	v2, v0
     998: 4ea01c03     	mov.16b	v3, v0
     99c: 5280004b     	mov	w11, #2
     9a0: 394000a9     	ldrb	w9, [x5]
     9a4: 8b298446     	add	x6, x2, w9, sxtb #1
     9a8: cb298449     	sub	x9, x2, w9, sxtb #1
     9ac: 4c4074c4     	ld1.8h	{ v4 }, [x6]
     9b0: 4c407525     	ld1.8h	{ v5 }, [x9]
     9b4: 910010a5     	add	x5, x5, #4
     9b8: 394000a9     	ldrb	w9, [x5]
     9bc: 8b298446     	add	x6, x2, w9, sxtb #1
     9c0: cb298449     	sub	x9, x2, w9, sxtb #1
     9c4: 4c4074c6     	ld1.8h	{ v6 }, [x6]
     9c8: 4c407527     	ld1.8h	{ v7 }, [x9]
     9cc: 3940010a     	ldrb	w10, [x8]
     9d0: 6e646c42     	umin.8h	v2, v2, v4
     9d4: 4e646463     	smax.8h	v3, v3, v4
     9d8: 6e656c42     	umin.8h	v2, v2, v5
     9dc: 4e656463     	smax.8h	v3, v3, v5
     9e0: 6e647410     	uabd.8h	v16, v0, v4
     9e4: 6e657414     	uabd.8h	v20, v0, v5
     9e8: 6e784611     	ushl.8h	v17, v16, v24
     9ec: 6e784695     	ushl.8h	v21, v20, v24
     9f0: 6e712f31     	uqsub.8h	v17, v25, v17
     9f4: 6e752f35     	uqsub.8h	v21, v25, v21
     9f8: 6e608492     	sub.8h	v18, v4, v0
     9fc: 6e6084b6     	sub.8h	v22, v5, v0
     a00: 6e60ba30     	neg.8h	v16, v17
     a04: 6e60bab4     	neg.8h	v20, v21
     a08: 4e716e52     	smin.8h	v18, v18, v17
     a0c: 4e756ed6     	smin.8h	v22, v22, v21
     a10: 4e020d53     	dup.8h	v19, w10
     a14: 4e706652     	smax.8h	v18, v18, v16
     a18: 4e7466d6     	smax.8h	v22, v22, v20
     a1c: 4e739641     	mla.8h	v1, v18, v19
     a20: 4e7396c1     	mla.8h	v1, v22, v19
     a24: 910020a5     	add	x5, x5, #8
     a28: 394000a9     	ldrb	w9, [x5]
     a2c: 8b298446     	add	x6, x2, w9, sxtb #1
     a30: cb298449     	sub	x9, x2, w9, sxtb #1
     a34: 4c4074c4     	ld1.8h	{ v4 }, [x6]
     a38: 4c407525     	ld1.8h	{ v5 }, [x9]
     a3c: 6e666c42     	umin.8h	v2, v2, v6
     a40: 4e666463     	smax.8h	v3, v3, v6
     a44: 6e676c42     	umin.8h	v2, v2, v7
     a48: 4e676463     	smax.8h	v3, v3, v7
     a4c: 6e667410     	uabd.8h	v16, v0, v6
     a50: 6e677414     	uabd.8h	v20, v0, v7
     a54: 6e7a4611     	ushl.8h	v17, v16, v26
     a58: 6e7a4695     	ushl.8h	v21, v20, v26
     a5c: 6e712f71     	uqsub.8h	v17, v27, v17
     a60: 6e752f75     	uqsub.8h	v21, v27, v21
     a64: 6e6084d2     	sub.8h	v18, v6, v0
     a68: 6e6084f6     	sub.8h	v22, v7, v0
     a6c: 6e60ba30     	neg.8h	v16, v17
     a70: 6e60bab4     	neg.8h	v20, v21
     a74: 4e716e52     	smin.8h	v18, v18, v17
     a78: 4e756ed6     	smin.8h	v22, v22, v21
     a7c: 4e020d73     	dup.8h	v19, w11
     a80: 4e706652     	smax.8h	v18, v18, v16
     a84: 4e7466d6     	smax.8h	v22, v22, v20
     a88: 4e739641     	mla.8h	v1, v18, v19
     a8c: 4e7396c1     	mla.8h	v1, v22, v19
     a90: 6e646c42     	umin.8h	v2, v2, v4
     a94: 4e646463     	smax.8h	v3, v3, v4
     a98: 6e656c42     	umin.8h	v2, v2, v5
     a9c: 4e656463     	smax.8h	v3, v3, v5
     aa0: 6e647410     	uabd.8h	v16, v0, v4
     aa4: 6e657414     	uabd.8h	v20, v0, v5
     aa8: 6e7a4611     	ushl.8h	v17, v16, v26
     aac: 6e7a4695     	ushl.8h	v21, v20, v26
     ab0: 6e712f71     	uqsub.8h	v17, v27, v17
     ab4: 6e752f75     	uqsub.8h	v21, v27, v21
     ab8: 6e608492     	sub.8h	v18, v4, v0
     abc: 6e6084b6     	sub.8h	v22, v5, v0
     ac0: 6e60ba30     	neg.8h	v16, v17
     ac4: 6e60bab4     	neg.8h	v20, v21
     ac8: 4e716e52     	smin.8h	v18, v18, v17
     acc: 4e756ed6     	smin.8h	v22, v22, v21
     ad0: 4e020d73     	dup.8h	v19, w11
     ad4: 4e706652     	smax.8h	v18, v18, v16
     ad8: 4e7466d6     	smax.8h	v22, v22, v20
     adc: 4e739641     	mla.8h	v1, v18, v19
     ae0: 4e7396c1     	mla.8h	v1, v22, v19
     ae4: d1002ca5     	sub	x5, x5, #11
     ae8: 7100056b     	subs	w11, w11, #1
     aec: 91000508     	add	x8, x8, #1
     af0: 54fff581     	b.ne	0x9a0 <cdef_filter8_pri_sec_8bpc_neon+0x68>
     af4: 4e60a824     	cmlt.8h	v4, v1, #0
     af8: 4e648421     	add.8h	v1, v1, v4
     afc: 4f1c2421     	srshr.8h	v1, v1, #4
     b00: 4e618400     	add.8h	v0, v0, v1
     b04: 4e636c00     	smin.8h	v0, v0, v3
     b08: 4e626400     	smax.8h	v0, v0, v2
     b0c: 0e212800     	xtn.8b	v0, v0
     b10: 91008042     	add	x2, x2, #32
     b14: 710004e7     	subs	w7, w7, #1
     b18: 0c817000     	st1.8b	{ v0 }, [x0], x1
     b1c: d10008a5     	sub	x5, x5, #2
     b20: d1000908     	sub	x8, x8, #2
     b24: 54fff34c     	b.gt	0x98c <cdef_filter8_pri_sec_8bpc_neon+0x54>
     b28: d65f03c0     	ret

0000000000000b2c <cdef_filter8_8bpc_neon>:
     b2c: 35000043     	cbnz	w3, 0xb34 <cdef_filter8_8bpc_neon+0x8>
     b30: 17ffff34     	b	0x800 <cdef_filter8_sec_8bpc_neon>
     b34: 35000044     	cbnz	w4, 0xb3c <cdef_filter8_8bpc_neon+0x10>
     b38: 17fffef5     	b	0x70c <cdef_filter8_pri_8bpc_neon>
     b3c: 17ffff7f     	b	0x938 <cdef_filter8_pri_sec_8bpc_neon>

0000000000000b40 <cdef_filter4_pri_8bpc_neon>:
     b40: b94003e8     	ldr	w8, [sp]
     b44: 71003d1f     	cmp	w8, #15
     b48: 54007880     	b.eq	0x1a58 <cdef_filter4_pri_edged_8bpc_neon>
     b4c: 90000008     	adrp	x8, 0x0 <cdef_filter4_pri_8bpc_neon+0xc>
     b50: 91000108     	add	x8, x8, #0
     b54: 12000069     	and	w9, w3, #0x1
     b58: 8b294508     	add	x8, x8, w9, uxtw #1
     b5c: 90000009     	adrp	x9, 0x0 <cdef_filter4_pri_8bpc_neon+0x1c>
     b60: 91000129     	add	x9, x9, #0
     b64: 8b254525     	add	x5, x9, w5, uxtw #1
     b68: 0f0085fe     	movi.4h	v30, #15
     b6c: 0e020cdc     	dup.4h	v28, w6
     b70: 4e020c79     	dup.8h	v25, w3
     b74: 0e5b2b38     	trn1.4h	v24, v25, v27
     b78: 2e604b18     	clz.4h	v24, v24
     b7c: 2e7887d8     	sub.4h	v24, v30, v24
     b80: 2e782f98     	uqsub.4h	v24, v28, v24
     b84: 2e60bb18     	neg.4h	v24, v24
     b88: 4e020718     	dup.8h	v24, v24[0]
     b8c: 9100404c     	add	x12, x2, #16
     b90: 0c407440     	ld1.4h	{ v0 }, [x2]
     b94: 4d408580     	ld1.d	{ v0 }[1], [x12]
     b98: 4f008401     	movi.8h	v1, #0
     b9c: 5280004b     	mov	w11, #2
     ba0: 394000a9     	ldrb	w9, [x5]
     ba4: 8b298446     	add	x6, x2, w9, sxtb #1
     ba8: cb298449     	sub	x9, x2, w9, sxtb #1
     bac: 0c4074c4     	ld1.4h	{ v4 }, [x6]
     bb0: 910040c6     	add	x6, x6, #16
     bb4: 0c407525     	ld1.4h	{ v5 }, [x9]
     bb8: 91004129     	add	x9, x9, #16
     bbc: 4d4084c4     	ld1.d	{ v4 }[1], [x6]
     bc0: 4d408525     	ld1.d	{ v5 }[1], [x9]
     bc4: 3940010a     	ldrb	w10, [x8]
     bc8: 6e647410     	uabd.8h	v16, v0, v4
     bcc: 6e657414     	uabd.8h	v20, v0, v5
     bd0: 6e784611     	ushl.8h	v17, v16, v24
     bd4: 6e784695     	ushl.8h	v21, v20, v24
     bd8: 6e712f31     	uqsub.8h	v17, v25, v17
     bdc: 6e752f35     	uqsub.8h	v21, v25, v21
     be0: 6e608492     	sub.8h	v18, v4, v0
     be4: 6e6084b6     	sub.8h	v22, v5, v0
     be8: 6e60ba30     	neg.8h	v16, v17
     bec: 6e60bab4     	neg.8h	v20, v21
     bf0: 4e716e52     	smin.8h	v18, v18, v17
     bf4: 4e756ed6     	smin.8h	v22, v22, v21
     bf8: 4e020d53     	dup.8h	v19, w10
     bfc: 4e706652     	smax.8h	v18, v18, v16
     c00: 4e7466d6     	smax.8h	v22, v22, v20
     c04: 4e739641     	mla.8h	v1, v18, v19
     c08: 4e7396c1     	mla.8h	v1, v22, v19
     c0c: 910004a5     	add	x5, x5, #1
     c10: 7100056b     	subs	w11, w11, #1
     c14: 91000508     	add	x8, x8, #1
     c18: 54fffc41     	b.ne	0xba0 <cdef_filter4_pri_8bpc_neon+0x60>
     c1c: 4e60a824     	cmlt.8h	v4, v1, #0
     c20: 4e648421     	add.8h	v1, v1, v4
     c24: 4f1c2421     	srshr.8h	v1, v1, #4
     c28: 4e618400     	add.8h	v0, v0, v1
     c2c: 0e212800     	xtn.8b	v0, v0
     c30: 0d818000     	st1.s	{ v0 }[0], [x0], x1
     c34: 91008042     	add	x2, x2, #32
     c38: 710008e7     	subs	w7, w7, #2
     c3c: 0d819000     	st1.s	{ v0 }[1], [x0], x1
     c40: d10008a5     	sub	x5, x5, #2
     c44: d1000908     	sub	x8, x8, #2
     c48: 54fffa2c     	b.gt	0xb8c <cdef_filter4_pri_8bpc_neon+0x4c>
     c4c: d65f03c0     	ret

0000000000000c50 <cdef_filter4_sec_8bpc_neon>:
     c50: b94003e8     	ldr	w8, [sp]
     c54: 71003d1f     	cmp	w8, #15
     c58: 54007a20     	b.eq	0x1b9c <cdef_filter4_sec_edged_8bpc_neon>
     c5c: 90000009     	adrp	x9, 0x0 <cdef_filter4_sec_8bpc_neon+0xc>
     c60: 91000129     	add	x9, x9, #0
     c64: 8b254525     	add	x5, x9, w5, uxtw #1
     c68: 0f0085fe     	movi.4h	v30, #15
     c6c: 0e020cdc     	dup.4h	v28, w6
     c70: 4e020c9b     	dup.8h	v27, w4
     c74: 0e5b2b38     	trn1.4h	v24, v25, v27
     c78: 2e604b18     	clz.4h	v24, v24
     c7c: 2e7887d8     	sub.4h	v24, v30, v24
     c80: 2e782f98     	uqsub.4h	v24, v28, v24
     c84: 2e60bb18     	neg.4h	v24, v24
     c88: 4e06071a     	dup.8h	v26, v24[1]
     c8c: 9100404c     	add	x12, x2, #16
     c90: 0c407440     	ld1.4h	{ v0 }, [x2]
     c94: 4d408580     	ld1.d	{ v0 }[1], [x12]
     c98: 4f008401     	movi.8h	v1, #0
     c9c: 5280004b     	mov	w11, #2
     ca0: 910010a5     	add	x5, x5, #4
     ca4: 394000a9     	ldrb	w9, [x5]
     ca8: 8b298446     	add	x6, x2, w9, sxtb #1
     cac: cb298449     	sub	x9, x2, w9, sxtb #1
     cb0: 0c4074c6     	ld1.4h	{ v6 }, [x6]
     cb4: 910040c6     	add	x6, x6, #16
     cb8: 0c407527     	ld1.4h	{ v7 }, [x9]
     cbc: 91004129     	add	x9, x9, #16
     cc0: 4d4084c6     	ld1.d	{ v6 }[1], [x6]
     cc4: 4d408527     	ld1.d	{ v7 }[1], [x9]
     cc8: 910020a5     	add	x5, x5, #8
     ccc: 394000a9     	ldrb	w9, [x5]
     cd0: 8b298446     	add	x6, x2, w9, sxtb #1
     cd4: cb298449     	sub	x9, x2, w9, sxtb #1
     cd8: 0c4074c4     	ld1.4h	{ v4 }, [x6]
     cdc: 910040c6     	add	x6, x6, #16
     ce0: 0c407525     	ld1.4h	{ v5 }, [x9]
     ce4: 91004129     	add	x9, x9, #16
     ce8: 4d4084c4     	ld1.d	{ v4 }[1], [x6]
     cec: 4d408525     	ld1.d	{ v5 }[1], [x9]
     cf0: 6e667410     	uabd.8h	v16, v0, v6
     cf4: 6e677414     	uabd.8h	v20, v0, v7
     cf8: 6e7a4611     	ushl.8h	v17, v16, v26
     cfc: 6e7a4695     	ushl.8h	v21, v20, v26
     d00: 6e712f71     	uqsub.8h	v17, v27, v17
     d04: 6e752f75     	uqsub.8h	v21, v27, v21
     d08: 6e6084d2     	sub.8h	v18, v6, v0
     d0c: 6e6084f6     	sub.8h	v22, v7, v0
     d10: 6e60ba30     	neg.8h	v16, v17
     d14: 6e60bab4     	neg.8h	v20, v21
     d18: 4e716e52     	smin.8h	v18, v18, v17
     d1c: 4e756ed6     	smin.8h	v22, v22, v21
     d20: 4e020d73     	dup.8h	v19, w11
     d24: 4e706652     	smax.8h	v18, v18, v16
     d28: 4e7466d6     	smax.8h	v22, v22, v20
     d2c: 4e739641     	mla.8h	v1, v18, v19
     d30: 4e7396c1     	mla.8h	v1, v22, v19
     d34: 6e647410     	uabd.8h	v16, v0, v4
     d38: 6e657414     	uabd.8h	v20, v0, v5
     d3c: 6e7a4611     	ushl.8h	v17, v16, v26
     d40: 6e7a4695     	ushl.8h	v21, v20, v26
     d44: 6e712f71     	uqsub.8h	v17, v27, v17
     d48: 6e752f75     	uqsub.8h	v21, v27, v21
     d4c: 6e608492     	sub.8h	v18, v4, v0
     d50: 6e6084b6     	sub.8h	v22, v5, v0
     d54: 6e60ba30     	neg.8h	v16, v17
     d58: 6e60bab4     	neg.8h	v20, v21
     d5c: 4e716e52     	smin.8h	v18, v18, v17
     d60: 4e756ed6     	smin.8h	v22, v22, v21
     d64: 4e020d73     	dup.8h	v19, w11
     d68: 4e706652     	smax.8h	v18, v18, v16
     d6c: 4e7466d6     	smax.8h	v22, v22, v20
     d70: 4e739641     	mla.8h	v1, v18, v19
     d74: 4e7396c1     	mla.8h	v1, v22, v19
     d78: d1002ca5     	sub	x5, x5, #11
     d7c: 7100056b     	subs	w11, w11, #1
     d80: 54fff901     	b.ne	0xca0 <cdef_filter4_sec_8bpc_neon+0x50>
     d84: 4e60a824     	cmlt.8h	v4, v1, #0
     d88: 4e648421     	add.8h	v1, v1, v4
     d8c: 4f1c2421     	srshr.8h	v1, v1, #4
     d90: 4e618400     	add.8h	v0, v0, v1
     d94: 0e212800     	xtn.8b	v0, v0
     d98: 0d818000     	st1.s	{ v0 }[0], [x0], x1
     d9c: 91008042     	add	x2, x2, #32
     da0: 710008e7     	subs	w7, w7, #2
     da4: 0d819000     	st1.s	{ v0 }[1], [x0], x1
     da8: d10008a5     	sub	x5, x5, #2
     dac: 54fff70c     	b.gt	0xc8c <cdef_filter4_sec_8bpc_neon+0x3c>
     db0: d65f03c0     	ret

0000000000000db4 <cdef_filter4_pri_sec_8bpc_neon>:
     db4: b94003e8     	ldr	w8, [sp]
     db8: 71003d1f     	cmp	w8, #15
     dbc: 54007cc0     	b.eq	0x1d54 <cdef_filter4_pri_sec_edged_8bpc_neon>
     dc0: 90000008     	adrp	x8, 0x0 <cdef_filter4_pri_sec_8bpc_neon+0xc>
     dc4: 91000108     	add	x8, x8, #0
     dc8: 12000069     	and	w9, w3, #0x1
     dcc: 8b294508     	add	x8, x8, w9, uxtw #1
     dd0: 90000009     	adrp	x9, 0x0 <cdef_filter4_pri_sec_8bpc_neon+0x1c>
     dd4: 91000129     	add	x9, x9, #0
     dd8: 8b254525     	add	x5, x9, w5, uxtw #1
     ddc: 0f0085fe     	movi.4h	v30, #15
     de0: 0e020cdc     	dup.4h	v28, w6
     de4: 4e020c79     	dup.8h	v25, w3
     de8: 4e020c9b     	dup.8h	v27, w4
     dec: 0e5b2b38     	trn1.4h	v24, v25, v27
     df0: 2e604b18     	clz.4h	v24, v24
     df4: 2e7887d8     	sub.4h	v24, v30, v24
     df8: 2e782f98     	uqsub.4h	v24, v28, v24
     dfc: 2e60bb18     	neg.4h	v24, v24
     e00: 4e06071a     	dup.8h	v26, v24[1]
     e04: 4e020718     	dup.8h	v24, v24[0]
     e08: 9100404c     	add	x12, x2, #16
     e0c: 0c407440     	ld1.4h	{ v0 }, [x2]
     e10: 4d408580     	ld1.d	{ v0 }[1], [x12]
     e14: 4f008401     	movi.8h	v1, #0
     e18: 4ea01c02     	mov.16b	v2, v0
     e1c: 4ea01c03     	mov.16b	v3, v0
     e20: 5280004b     	mov	w11, #2
     e24: 394000a9     	ldrb	w9, [x5]
     e28: 8b298446     	add	x6, x2, w9, sxtb #1
     e2c: cb298449     	sub	x9, x2, w9, sxtb #1
     e30: 0c4074c4     	ld1.4h	{ v4 }, [x6]
     e34: 910040c6     	add	x6, x6, #16
     e38: 0c407525     	ld1.4h	{ v5 }, [x9]
     e3c: 91004129     	add	x9, x9, #16
     e40: 4d4084c4     	ld1.d	{ v4 }[1], [x6]
     e44: 4d408525     	ld1.d	{ v5 }[1], [x9]
     e48: 910010a5     	add	x5, x5, #4
     e4c: 394000a9     	ldrb	w9, [x5]
     e50: 8b298446     	add	x6, x2, w9, sxtb #1
     e54: cb298449     	sub	x9, x2, w9, sxtb #1
     e58: 0c4074c6     	ld1.4h	{ v6 }, [x6]
     e5c: 910040c6     	add	x6, x6, #16
     e60: 0c407527     	ld1.4h	{ v7 }, [x9]
     e64: 91004129     	add	x9, x9, #16
     e68: 4d4084c6     	ld1.d	{ v6 }[1], [x6]
     e6c: 4d408527     	ld1.d	{ v7 }[1], [x9]
     e70: 3940010a     	ldrb	w10, [x8]
     e74: 6e646c42     	umin.8h	v2, v2, v4
     e78: 4e646463     	smax.8h	v3, v3, v4
     e7c: 6e656c42     	umin.8h	v2, v2, v5
     e80: 4e656463     	smax.8h	v3, v3, v5
     e84: 6e647410     	uabd.8h	v16, v0, v4
     e88: 6e657414     	uabd.8h	v20, v0, v5
     e8c: 6e784611     	ushl.8h	v17, v16, v24
     e90: 6e784695     	ushl.8h	v21, v20, v24
     e94: 6e712f31     	uqsub.8h	v17, v25, v17
     e98: 6e752f35     	uqsub.8h	v21, v25, v21
     e9c: 6e608492     	sub.8h	v18, v4, v0
     ea0: 6e6084b6     	sub.8h	v22, v5, v0
     ea4: 6e60ba30     	neg.8h	v16, v17
     ea8: 6e60bab4     	neg.8h	v20, v21
     eac: 4e716e52     	smin.8h	v18, v18, v17
     eb0: 4e756ed6     	smin.8h	v22, v22, v21
     eb4: 4e020d53     	dup.8h	v19, w10
     eb8: 4e706652     	smax.8h	v18, v18, v16
     ebc: 4e7466d6     	smax.8h	v22, v22, v20
     ec0: 4e739641     	mla.8h	v1, v18, v19
     ec4: 4e7396c1     	mla.8h	v1, v22, v19
     ec8: 910020a5     	add	x5, x5, #8
     ecc: 394000a9     	ldrb	w9, [x5]
     ed0: 8b298446     	add	x6, x2, w9, sxtb #1
     ed4: cb298449     	sub	x9, x2, w9, sxtb #1
     ed8: 0c4074c4     	ld1.4h	{ v4 }, [x6]
     edc: 910040c6     	add	x6, x6, #16
     ee0: 0c407525     	ld1.4h	{ v5 }, [x9]
     ee4: 91004129     	add	x9, x9, #16
     ee8: 4d4084c4     	ld1.d	{ v4 }[1], [x6]
     eec: 4d408525     	ld1.d	{ v5 }[1], [x9]
     ef0: 6e666c42     	umin.8h	v2, v2, v6
     ef4: 4e666463     	smax.8h	v3, v3, v6
     ef8: 6e676c42     	umin.8h	v2, v2, v7
     efc: 4e676463     	smax.8h	v3, v3, v7
     f00: 6e667410     	uabd.8h	v16, v0, v6
     f04: 6e677414     	uabd.8h	v20, v0, v7
     f08: 6e7a4611     	ushl.8h	v17, v16, v26
     f0c: 6e7a4695     	ushl.8h	v21, v20, v26
     f10: 6e712f71     	uqsub.8h	v17, v27, v17
     f14: 6e752f75     	uqsub.8h	v21, v27, v21
     f18: 6e6084d2     	sub.8h	v18, v6, v0
     f1c: 6e6084f6     	sub.8h	v22, v7, v0
     f20: 6e60ba30     	neg.8h	v16, v17
     f24: 6e60bab4     	neg.8h	v20, v21
     f28: 4e716e52     	smin.8h	v18, v18, v17
     f2c: 4e756ed6     	smin.8h	v22, v22, v21
     f30: 4e020d73     	dup.8h	v19, w11
     f34: 4e706652     	smax.8h	v18, v18, v16
     f38: 4e7466d6     	smax.8h	v22, v22, v20
     f3c: 4e739641     	mla.8h	v1, v18, v19
     f40: 4e7396c1     	mla.8h	v1, v22, v19
     f44: 6e646c42     	umin.8h	v2, v2, v4
     f48: 4e646463     	smax.8h	v3, v3, v4
     f4c: 6e656c42     	umin.8h	v2, v2, v5
     f50: 4e656463     	smax.8h	v3, v3, v5
     f54: 6e647410     	uabd.8h	v16, v0, v4
     f58: 6e657414     	uabd.8h	v20, v0, v5
     f5c: 6e7a4611     	ushl.8h	v17, v16, v26
     f60: 6e7a4695     	ushl.8h	v21, v20, v26
     f64: 6e712f71     	uqsub.8h	v17, v27, v17
     f68: 6e752f75     	uqsub.8h	v21, v27, v21
     f6c: 6e608492     	sub.8h	v18, v4, v0
     f70: 6e6084b6     	sub.8h	v22, v5, v0
     f74: 6e60ba30     	neg.8h	v16, v17
     f78: 6e60bab4     	neg.8h	v20, v21
     f7c: 4e716e52     	smin.8h	v18, v18, v17
     f80: 4e756ed6     	smin.8h	v22, v22, v21
     f84: 4e020d73     	dup.8h	v19, w11
     f88: 4e706652     	smax.8h	v18, v18, v16
     f8c: 4e7466d6     	smax.8h	v22, v22, v20
     f90: 4e739641     	mla.8h	v1, v18, v19
     f94: 4e7396c1     	mla.8h	v1, v22, v19
     f98: d1002ca5     	sub	x5, x5, #11
     f9c: 7100056b     	subs	w11, w11, #1
     fa0: 91000508     	add	x8, x8, #1
     fa4: 54fff401     	b.ne	0xe24 <cdef_filter4_pri_sec_8bpc_neon+0x70>
     fa8: 4e60a824     	cmlt.8h	v4, v1, #0
     fac: 4e648421     	add.8h	v1, v1, v4
     fb0: 4f1c2421     	srshr.8h	v1, v1, #4
     fb4: 4e618400     	add.8h	v0, v0, v1
     fb8: 4e636c00     	smin.8h	v0, v0, v3
     fbc: 4e626400     	smax.8h	v0, v0, v2
     fc0: 0e212800     	xtn.8b	v0, v0
     fc4: 0d818000     	st1.s	{ v0 }[0], [x0], x1
     fc8: 91008042     	add	x2, x2, #32
     fcc: 710008e7     	subs	w7, w7, #2
     fd0: 0d819000     	st1.s	{ v0 }[1], [x0], x1
     fd4: d10008a5     	sub	x5, x5, #2
     fd8: d1000908     	sub	x8, x8, #2
     fdc: 54fff16c     	b.gt	0xe08 <cdef_filter4_pri_sec_8bpc_neon+0x54>
     fe0: d65f03c0     	ret

0000000000000fe4 <cdef_filter4_8bpc_neon>:
     fe4: 35000043     	cbnz	w3, 0xfec <cdef_filter4_8bpc_neon+0x8>
     fe8: 17ffff1a     	b	0xc50 <cdef_filter4_sec_8bpc_neon>
     fec: 35000044     	cbnz	w4, 0xff4 <cdef_filter4_8bpc_neon+0x10>
     ff0: 17fffed4     	b	0xb40 <cdef_filter4_pri_8bpc_neon>
     ff4: 17ffff70     	b	0xdb4 <cdef_filter4_pri_sec_8bpc_neon>

0000000000000ff8 <cdef_find_dir_8bpc_neon>:
     ff8: d10083ff     	sub	sp, sp, #32
     ffc: 52800103     	mov	w3, #8
    1000: 4f04e41f     	movi.16b	v31, #128
    1004: 4f00e41e     	movi.16b	v30, #0
    1008: 4f008401     	movi.8h	v1, #0
    100c: 4f008403     	movi.8h	v3, #0
    1010: 4f008405     	movi.8h	v5, #0
    1014: 4f008407     	movi.8h	v7, #0
    1018: 0cc1701a     	ld1.8b	{ v26 }, [x0], x1
    101c: 4f008411     	movi.8h	v17, #0
    1020: 4f008412     	movi.8h	v18, #0
    1024: 2e3f235a     	usubl.8h	v26, v26, v31
    1028: 4f008413     	movi.8h	v19, #0
    102c: 4f008415     	movi.8h	v21, #0
    1030: 4e71bb59     	addv.8h	h25, v26
    1034: 4e600b5b     	rev64.8h	v27, v26
    1038: 4e7ebf5c     	addp.8h	v28, v26, v30
    103c: 4e7a84a5     	add.8h	v5, v5, v26
    1040: 6e1b437b     	ext.16b	v27, v27, v27, #8
    1044: 0e600b9d     	rev64.4h	v29, v28
    1048: 6e020724     	mov.h	v4[0], v25[0]
    104c: 6e1a53d6     	ext.16b	v22, v30, v26, #10
    1050: 6e1e5357     	ext.16b	v23, v26, v30, #10
    1054: 4e768652     	add.8h	v18, v18, v22
    1058: 0e778673     	add.4h	v19, v19, v23
    105c: 4eba1f54     	mov.16b	v20, v26
    1060: 4eba1f40     	mov.16b	v0, v26
    1064: 0cc1701a     	ld1.8b	{ v26 }, [x0], x1
    1068: 4ebb1f62     	mov.16b	v2, v27
    106c: 2e3f235a     	usubl.8h	v26, v26, v31
    1070: 4ebc1f86     	mov.16b	v6, v28
    1074: 4ebd1fb0     	mov.16b	v16, v29
    1078: 4e71bb59     	addv.8h	h25, v26
    107c: 4e600b5b     	rev64.8h	v27, v26
    1080: 4e7ebf5c     	addp.8h	v28, v26, v30
    1084: 4e7a84a5     	add.8h	v5, v5, v26
    1088: 6e1b437b     	ext.16b	v27, v27, v27, #8
    108c: 0e600b9d     	rev64.4h	v29, v28
    1090: 6e060724     	mov.h	v4[1], v25[0]
    1094: 6e1a53d6     	ext.16b	v22, v30, v26, #10
    1098: 6e1e5357     	ext.16b	v23, v26, v30, #10
    109c: 4e768652     	add.8h	v18, v18, v22
    10a0: 0e778673     	add.4h	v19, v19, v23
    10a4: 4e7a8694     	add.8h	v20, v20, v26
    10a8: 6e1a73d6     	ext.16b	v22, v30, v26, #14
    10ac: 6e1e7357     	ext.16b	v23, v26, v30, #14
    10b0: 6e1b73d8     	ext.16b	v24, v30, v27, #14
    10b4: 6e1e7379     	ext.16b	v25, v27, v30, #14
    10b8: 0cc1701a     	ld1.8b	{ v26 }, [x0], x1
    10bc: 4e768400     	add.8h	v0, v0, v22
    10c0: 4e778421     	add.8h	v1, v1, v23
    10c4: 4e788442     	add.8h	v2, v2, v24
    10c8: 4e798463     	add.8h	v3, v3, v25
    10cc: 2e3f235a     	usubl.8h	v26, v26, v31
    10d0: 6e1c73d6     	ext.16b	v22, v30, v28, #14
    10d4: 6e1e7397     	ext.16b	v23, v28, v30, #14
    10d8: 6e1d73d8     	ext.16b	v24, v30, v29, #14
    10dc: 6e1e73b9     	ext.16b	v25, v29, v30, #14
    10e0: 4e7684c6     	add.8h	v6, v6, v22
    10e4: 0e7784e7     	add.4h	v7, v7, v23
    10e8: 4e788610     	add.8h	v16, v16, v24
    10ec: 0e798631     	add.4h	v17, v17, v25
    10f0: 4e71bb59     	addv.8h	h25, v26
    10f4: 4e600b5b     	rev64.8h	v27, v26
    10f8: 4e7ebf5c     	addp.8h	v28, v26, v30
    10fc: 4e7a84a5     	add.8h	v5, v5, v26
    1100: 6e1b437b     	ext.16b	v27, v27, v27, #8
    1104: 0e600b9d     	rev64.4h	v29, v28
    1108: 6e0a0724     	mov.h	v4[2], v25[0]
    110c: 6e1a63d6     	ext.16b	v22, v30, v26, #12
    1110: 6e1e6357     	ext.16b	v23, v26, v30, #12
    1114: 4e768652     	add.8h	v18, v18, v22
    1118: 0e778673     	add.4h	v19, v19, v23
    111c: 6e1a73d8     	ext.16b	v24, v30, v26, #14
    1120: 6e1e7359     	ext.16b	v25, v26, v30, #14
    1124: 4e788694     	add.8h	v20, v20, v24
    1128: 0e7986b5     	add.4h	v21, v21, v25
    112c: 6e1a63d6     	ext.16b	v22, v30, v26, #12
    1130: 6e1e6357     	ext.16b	v23, v26, v30, #12
    1134: 6e1b63d8     	ext.16b	v24, v30, v27, #12
    1138: 6e1e6379     	ext.16b	v25, v27, v30, #12
    113c: 0cc1701a     	ld1.8b	{ v26 }, [x0], x1
    1140: 4e768400     	add.8h	v0, v0, v22
    1144: 4e778421     	add.8h	v1, v1, v23
    1148: 4e788442     	add.8h	v2, v2, v24
    114c: 4e798463     	add.8h	v3, v3, v25
    1150: 2e3f235a     	usubl.8h	v26, v26, v31
    1154: 6e1c63d6     	ext.16b	v22, v30, v28, #12
    1158: 6e1e6397     	ext.16b	v23, v28, v30, #12
    115c: 6e1d63d8     	ext.16b	v24, v30, v29, #12
    1160: 6e1e63b9     	ext.16b	v25, v29, v30, #12
    1164: 4e7684c6     	add.8h	v6, v6, v22
    1168: 0e7784e7     	add.4h	v7, v7, v23
    116c: 4e788610     	add.8h	v16, v16, v24
    1170: 0e798631     	add.4h	v17, v17, v25
    1174: 4e71bb59     	addv.8h	h25, v26
    1178: 4e600b5b     	rev64.8h	v27, v26
    117c: 4e7ebf5c     	addp.8h	v28, v26, v30
    1180: 4e7a84a5     	add.8h	v5, v5, v26
    1184: 6e1b437b     	ext.16b	v27, v27, v27, #8
    1188: 0e600b9d     	rev64.4h	v29, v28
    118c: 6e0e0724     	mov.h	v4[3], v25[0]
    1190: 6e1a63d6     	ext.16b	v22, v30, v26, #12
    1194: 6e1e6357     	ext.16b	v23, v26, v30, #12
    1198: 4e768652     	add.8h	v18, v18, v22
    119c: 0e778673     	add.4h	v19, v19, v23
    11a0: 6e1a73d8     	ext.16b	v24, v30, v26, #14
    11a4: 6e1e7359     	ext.16b	v25, v26, v30, #14
    11a8: 4e788694     	add.8h	v20, v20, v24
    11ac: 0e7986b5     	add.4h	v21, v21, v25
    11b0: 6e1a53d6     	ext.16b	v22, v30, v26, #10
    11b4: 6e1e5357     	ext.16b	v23, v26, v30, #10
    11b8: 6e1b53d8     	ext.16b	v24, v30, v27, #10
    11bc: 6e1e5379     	ext.16b	v25, v27, v30, #10
    11c0: 0cc1701a     	ld1.8b	{ v26 }, [x0], x1
    11c4: 4e768400     	add.8h	v0, v0, v22
    11c8: 4e778421     	add.8h	v1, v1, v23
    11cc: 4e788442     	add.8h	v2, v2, v24
    11d0: 4e798463     	add.8h	v3, v3, v25
    11d4: 2e3f235a     	usubl.8h	v26, v26, v31
    11d8: 6e1c53d6     	ext.16b	v22, v30, v28, #10
    11dc: 6e1e5397     	ext.16b	v23, v28, v30, #10
    11e0: 6e1d53d8     	ext.16b	v24, v30, v29, #10
    11e4: 6e1e53b9     	ext.16b	v25, v29, v30, #10
    11e8: 4e7684c6     	add.8h	v6, v6, v22
    11ec: 0e7784e7     	add.4h	v7, v7, v23
    11f0: 4e788610     	add.8h	v16, v16, v24
    11f4: 0e798631     	add.4h	v17, v17, v25
    11f8: 4e71bb59     	addv.8h	h25, v26
    11fc: 4e600b5b     	rev64.8h	v27, v26
    1200: 4e7ebf5c     	addp.8h	v28, v26, v30
    1204: 4e7a84a5     	add.8h	v5, v5, v26
    1208: 6e1b437b     	ext.16b	v27, v27, v27, #8
    120c: 0e600b9d     	rev64.4h	v29, v28
    1210: 6e120724     	mov.h	v4[4], v25[0]
    1214: 6e1a73d6     	ext.16b	v22, v30, v26, #14
    1218: 6e1e7357     	ext.16b	v23, v26, v30, #14
    121c: 4e768652     	add.8h	v18, v18, v22
    1220: 0e778673     	add.4h	v19, v19, v23
    1224: 6e1a63d8     	ext.16b	v24, v30, v26, #12
    1228: 6e1e6359     	ext.16b	v25, v26, v30, #12
    122c: 4e788694     	add.8h	v20, v20, v24
    1230: 0e7986b5     	add.4h	v21, v21, v25
    1234: 6e1a43d6     	ext.16b	v22, v30, v26, #8
    1238: 6e1e4357     	ext.16b	v23, v26, v30, #8
    123c: 6e1b43d8     	ext.16b	v24, v30, v27, #8
    1240: 6e1e4379     	ext.16b	v25, v27, v30, #8
    1244: 0cc1701a     	ld1.8b	{ v26 }, [x0], x1
    1248: 4e768400     	add.8h	v0, v0, v22
    124c: 4e778421     	add.8h	v1, v1, v23
    1250: 4e788442     	add.8h	v2, v2, v24
    1254: 4e798463     	add.8h	v3, v3, v25
    1258: 2e3f235a     	usubl.8h	v26, v26, v31
    125c: 6e1c43d6     	ext.16b	v22, v30, v28, #8
    1260: 6e1e4397     	ext.16b	v23, v28, v30, #8
    1264: 6e1d43d8     	ext.16b	v24, v30, v29, #8
    1268: 6e1e43b9     	ext.16b	v25, v29, v30, #8
    126c: 4e7684c6     	add.8h	v6, v6, v22
    1270: 0e7784e7     	add.4h	v7, v7, v23
    1274: 4e788610     	add.8h	v16, v16, v24
    1278: 0e798631     	add.4h	v17, v17, v25
    127c: 4e71bb59     	addv.8h	h25, v26
    1280: 4e600b5b     	rev64.8h	v27, v26
    1284: 4e7ebf5c     	addp.8h	v28, v26, v30
    1288: 4e7a84a5     	add.8h	v5, v5, v26
    128c: 6e1b437b     	ext.16b	v27, v27, v27, #8
    1290: 0e600b9d     	rev64.4h	v29, v28
    1294: 6e160724     	mov.h	v4[5], v25[0]
    1298: 6e1a73d6     	ext.16b	v22, v30, v26, #14
    129c: 6e1e7357     	ext.16b	v23, v26, v30, #14
    12a0: 4e768652     	add.8h	v18, v18, v22
    12a4: 0e778673     	add.4h	v19, v19, v23
    12a8: 6e1a63d8     	ext.16b	v24, v30, v26, #12
    12ac: 6e1e6359     	ext.16b	v25, v26, v30, #12
    12b0: 4e788694     	add.8h	v20, v20, v24
    12b4: 0e7986b5     	add.4h	v21, v21, v25
    12b8: 6e1a33d6     	ext.16b	v22, v30, v26, #6
    12bc: 6e1e3357     	ext.16b	v23, v26, v30, #6
    12c0: 6e1b33d8     	ext.16b	v24, v30, v27, #6
    12c4: 6e1e3379     	ext.16b	v25, v27, v30, #6
    12c8: 0cc1701a     	ld1.8b	{ v26 }, [x0], x1
    12cc: 4e768400     	add.8h	v0, v0, v22
    12d0: 4e778421     	add.8h	v1, v1, v23
    12d4: 4e788442     	add.8h	v2, v2, v24
    12d8: 4e798463     	add.8h	v3, v3, v25
    12dc: 2e3f235a     	usubl.8h	v26, v26, v31
    12e0: 6e1c33d6     	ext.16b	v22, v30, v28, #6
    12e4: 6e1e3397     	ext.16b	v23, v28, v30, #6
    12e8: 6e1d33d8     	ext.16b	v24, v30, v29, #6
    12ec: 6e1e33b9     	ext.16b	v25, v29, v30, #6
    12f0: 4e7684c6     	add.8h	v6, v6, v22
    12f4: 0e7784e7     	add.4h	v7, v7, v23
    12f8: 4e788610     	add.8h	v16, v16, v24
    12fc: 0e798631     	add.4h	v17, v17, v25
    1300: 4e71bb59     	addv.8h	h25, v26
    1304: 4e600b5b     	rev64.8h	v27, v26
    1308: 4e7ebf5c     	addp.8h	v28, v26, v30
    130c: 4e7a84a5     	add.8h	v5, v5, v26
    1310: 6e1b437b     	ext.16b	v27, v27, v27, #8
    1314: 0e600b9d     	rev64.4h	v29, v28
    1318: 6e1a0724     	mov.h	v4[6], v25[0]
    131c: 4e7a8652     	add.8h	v18, v18, v26
    1320: 6e1a53d8     	ext.16b	v24, v30, v26, #10
    1324: 6e1e5359     	ext.16b	v25, v26, v30, #10
    1328: 4e788694     	add.8h	v20, v20, v24
    132c: 0e7986b5     	add.4h	v21, v21, v25
    1330: 6e1a23d6     	ext.16b	v22, v30, v26, #4
    1334: 6e1e2357     	ext.16b	v23, v26, v30, #4
    1338: 6e1b23d8     	ext.16b	v24, v30, v27, #4
    133c: 6e1e2379     	ext.16b	v25, v27, v30, #4
    1340: 0cc1701a     	ld1.8b	{ v26 }, [x0], x1
    1344: 4e768400     	add.8h	v0, v0, v22
    1348: 4e778421     	add.8h	v1, v1, v23
    134c: 4e788442     	add.8h	v2, v2, v24
    1350: 4e798463     	add.8h	v3, v3, v25
    1354: 2e3f235a     	usubl.8h	v26, v26, v31
    1358: 6e1c23d6     	ext.16b	v22, v30, v28, #4
    135c: 6e1e2397     	ext.16b	v23, v28, v30, #4
    1360: 6e1d23d8     	ext.16b	v24, v30, v29, #4
    1364: 6e1e23b9     	ext.16b	v25, v29, v30, #4
    1368: 4e7684c6     	add.8h	v6, v6, v22
    136c: 0e7784e7     	add.4h	v7, v7, v23
    1370: 4e788610     	add.8h	v16, v16, v24
    1374: 0e798631     	add.4h	v17, v17, v25
    1378: 4e71bb59     	addv.8h	h25, v26
    137c: 4e600b5b     	rev64.8h	v27, v26
    1380: 4e7ebf5c     	addp.8h	v28, v26, v30
    1384: 4e7a84a5     	add.8h	v5, v5, v26
    1388: 6e1b437b     	ext.16b	v27, v27, v27, #8
    138c: 0e600b9d     	rev64.4h	v29, v28
    1390: 6e1e0724     	mov.h	v4[7], v25[0]
    1394: 4e7a8652     	add.8h	v18, v18, v26
    1398: 6e1a53d8     	ext.16b	v24, v30, v26, #10
    139c: 6e1e5359     	ext.16b	v25, v26, v30, #10
    13a0: 4e788694     	add.8h	v20, v20, v24
    13a4: 0e7986b5     	add.4h	v21, v21, v25
    13a8: 6e1a13d6     	ext.16b	v22, v30, v26, #2
    13ac: 6e1e1357     	ext.16b	v23, v26, v30, #2
    13b0: 6e1b13d8     	ext.16b	v24, v30, v27, #2
    13b4: 6e1e1379     	ext.16b	v25, v27, v30, #2
    13b8: 4e768400     	add.8h	v0, v0, v22
    13bc: 4e778421     	add.8h	v1, v1, v23
    13c0: 4e788442     	add.8h	v2, v2, v24
    13c4: 4e798463     	add.8h	v3, v3, v25
    13c8: 6e1c13d6     	ext.16b	v22, v30, v28, #2
    13cc: 6e1e1397     	ext.16b	v23, v28, v30, #2
    13d0: 6e1d13d8     	ext.16b	v24, v30, v29, #2
    13d4: 6e1e13b9     	ext.16b	v25, v29, v30, #2
    13d8: 4e7684c6     	add.8h	v6, v6, v22
    13dc: 0e7784e7     	add.4h	v7, v7, v23
    13e0: 4e788610     	add.8h	v16, v16, v24
    13e4: 0e798631     	add.4h	v17, v17, v25
    13e8: 4f03053f     	movi.4s	v31, #105
    13ec: 0e64c09a     	smull.4s	v26, v4, v4
    13f0: 4e64809a     	smlal2.4s	v26, v4, v4
    13f4: 0e65c0bb     	smull.4s	v27, v5, v5
    13f8: 4e6580bb     	smlal2.4s	v27, v5, v5
    13fc: 4ebf9f5a     	mul.4s	v26, v26, v31
    1400: 4ebf9f7b     	mul.4s	v27, v27, v31
    1404: 4eb1bb44     	addv.4s	s4, v26
    1408: 4eb1bb65     	addv.4s	s5, v27
    140c: 4e600821     	rev64.8h	v1, v1
    1410: 4e600863     	rev64.8h	v3, v3
    1414: 6e015021     	ext.16b	v1, v1, v1, #10
    1418: 6e035063     	ext.16b	v3, v3, v3, #10
    141c: bd000be4     	str	s4, [sp, #8]
    1420: bd001be5     	str	s5, [sp, #24]
    1424: 90000004     	adrp	x4, 0x1000 <cdef_find_dir_8bpc_neon+0x42c>
    1428: 91000084     	add	x4, x4, #0
    142c: 4c40749f     	ld1.8h	{ v31 }, [x4]
    1430: 0e60c016     	smull.4s	v22, v0, v0
    1434: 4e60c017     	smull2.4s	v23, v0, v0
    1438: 0e618036     	smlal.4s	v22, v1, v1
    143c: 4e618037     	smlal2.4s	v23, v1, v1
    1440: 0e62c058     	smull.4s	v24, v2, v2
    1444: 4e62c059     	smull2.4s	v25, v2, v2
    1448: 0e638078     	smlal.4s	v24, v3, v3
    144c: 4e638079     	smlal2.4s	v25, v3, v3
    1450: 2f10a7fe     	ushll.4s	v30, v31, #0
    1454: 6f10a7ff     	ushll2.4s	v31, v31, #0
    1458: 4ebe9ed6     	mul.4s	v22, v22, v30
    145c: 4ebf96f6     	mla.4s	v22, v23, v31
    1460: 4ebe9f18     	mul.4s	v24, v24, v30
    1464: 4ebf9738     	mla.4s	v24, v25, v31
    1468: 4eb1bac0     	addv.4s	s0, v22
    146c: 4eb1bb02     	addv.4s	s2, v24
    1470: 90000005     	adrp	x5, 0x1000 <cdef_find_dir_8bpc_neon+0x478>
    1474: 910000a5     	add	x5, x5, #0
    1478: 0c4064bd     	ld1.4h	{ v29, v30, v31 }, [x5]
    147c: bd0003e0     	str	s0, [sp]
    1480: bd0013e2     	str	s2, [sp, #16]
    1484: 2f10a7bd     	ushll.4s	v29, v29, #0
    1488: 2f10a7de     	ushll.4s	v30, v30, #0
    148c: 2f10a7ff     	ushll.4s	v31, v31, #0
    1490: 0e66c0d6     	smull.4s	v22, v6, v6
    1494: 4e66c0d7     	smull2.4s	v23, v6, v6
    1498: 0e67c0f8     	smull.4s	v24, v7, v7
    149c: 0e70c219     	smull.4s	v25, v16, v16
    14a0: 4e70c21a     	smull2.4s	v26, v16, v16
    14a4: 0e71c23b     	smull.4s	v27, v17, v17
    14a8: 4ebd9ed6     	mul.4s	v22, v22, v29
    14ac: 4ebe96f6     	mla.4s	v22, v23, v30
    14b0: 4ebf9716     	mla.4s	v22, v24, v31
    14b4: 4ebd9f39     	mul.4s	v25, v25, v29
    14b8: 4ebe9759     	mla.4s	v25, v26, v30
    14bc: 4ebf9779     	mla.4s	v25, v27, v31
    14c0: 4eb1bac6     	addv.4s	s6, v22
    14c4: 4eb1bb30     	addv.4s	s16, v25
    14c8: 0e72c256     	smull.4s	v22, v18, v18
    14cc: 4e72c257     	smull2.4s	v23, v18, v18
    14d0: 0e73c278     	smull.4s	v24, v19, v19
    14d4: 0e74c299     	smull.4s	v25, v20, v20
    14d8: 4e74c29a     	smull2.4s	v26, v20, v20
    14dc: 0e75c2bb     	smull.4s	v27, v21, v21
    14e0: 4ebd9ed6     	mul.4s	v22, v22, v29
    14e4: 4ebe96f6     	mla.4s	v22, v23, v30
    14e8: 4ebf9716     	mla.4s	v22, v24, v31
    14ec: 4ebd9f39     	mul.4s	v25, v25, v29
    14f0: 4ebe9759     	mla.4s	v25, v26, v30
    14f4: 4ebf9779     	mla.4s	v25, v27, v31
    14f8: 4eb1bad2     	addv.4s	s18, v22
    14fc: 4eb1bb34     	addv.4s	s20, v25
    1500: bd0007e6     	str	s6, [sp, #4]
    1504: bd000ff0     	str	s16, [sp, #12]
    1508: 52800000     	mov	w0, #0
    150c: 0e043c01     	mov.s	w1, v0[0]
    1510: 52800023     	mov	w3, #1
    1514: bd0017f2     	str	s18, [sp, #20]
    1518: bd001ff4     	str	s20, [sp, #28]
    151c: 0e043cc4     	mov.s	w4, v6[0]
    1520: 0e043c85     	mov.s	w5, v4[0]
    1524: 6b01009f     	cmp	w4, w1
    1528: 1a80c060     	csel	w0, w3, w0, gt
    152c: 1a81c081     	csel	w1, w4, w1, gt
    1530: 11000463     	add	w3, w3, #1
    1534: 6b0100bf     	cmp	w5, w1
    1538: 0e043e04     	mov.s	w4, v16[0]
    153c: 1a80c060     	csel	w0, w3, w0, gt
    1540: 1a81c0a1     	csel	w1, w5, w1, gt
    1544: 11000463     	add	w3, w3, #1
    1548: 0e043c45     	mov.s	w5, v2[0]
    154c: 6b01009f     	cmp	w4, w1
    1550: 1a80c060     	csel	w0, w3, w0, gt
    1554: 1a81c081     	csel	w1, w4, w1, gt
    1558: 11000463     	add	w3, w3, #1
    155c: 6b0100bf     	cmp	w5, w1
    1560: 0e043e44     	mov.s	w4, v18[0]
    1564: 1a80c060     	csel	w0, w3, w0, gt
    1568: 1a81c0a1     	csel	w1, w5, w1, gt
    156c: 11000463     	add	w3, w3, #1
    1570: 0e043ca5     	mov.s	w5, v5[0]
    1574: 6b01009f     	cmp	w4, w1
    1578: 1a80c060     	csel	w0, w3, w0, gt
    157c: 1a81c081     	csel	w1, w4, w1, gt
    1580: 11000463     	add	w3, w3, #1
    1584: 6b0100bf     	cmp	w5, w1
    1588: 0e043e84     	mov.s	w4, v20[0]
    158c: 1a80c060     	csel	w0, w3, w0, gt
    1590: 1a81c0a1     	csel	w1, w5, w1, gt
    1594: 11000463     	add	w3, w3, #1
    1598: 6b01009f     	cmp	w4, w1
    159c: 1a80c060     	csel	w0, w3, w0, gt
    15a0: 1a81c081     	csel	w1, w4, w1, gt
    15a4: 521e0003     	eor	w3, w0, #0x4
    15a8: b8635be4     	ldr	w4, [sp, w3, uxtw #2]
    15ac: 4b040021     	sub	w1, w1, w4
    15b0: 530a7c21     	lsr	w1, w1, #10
    15b4: b9000041     	str	w1, [x2]
    15b8: 910083ff     	add	sp, sp, #32
    15bc: d65f03c0     	ret

00000000000015c0 <cdef_filter8_pri_edged_8bpc_neon>:
    15c0: 90000008     	adrp	x8, 0x1000 <cdef_filter8_pri_edged_8bpc_neon>
    15c4: 91000108     	add	x8, x8, #0
    15c8: 12000069     	and	w9, w3, #0x1
    15cc: 8b294508     	add	x8, x8, w9, uxtw #1
    15d0: 90000009     	adrp	x9, 0x1000 <cdef_filter8_pri_edged_8bpc_neon+0x10>
    15d4: 91000129     	add	x9, x9, #0
    15d8: 8b254525     	add	x5, x9, w5, uxtw #1
    15dc: 0f00e4fe     	movi.8b	v30, #7
    15e0: 0e010cdc     	dup.8b	v28, w6
    15e4: 4e010c79     	dup.16b	v25, w3
    15e8: 0e1b2b38     	trn1.8b	v24, v25, v27
    15ec: 2e204b18     	clz.8b	v24, v24
    15f0: 2e3887d8     	sub.8b	v24, v30, v24
    15f4: 2e382f98     	uqsub.8b	v24, v28, v24
    15f8: 2e20bb18     	neg.8b	v24, v24
    15fc: 4e010718     	dup.16b	v24, v24[0]
    1600: 9100404c     	add	x12, x2, #16
    1604: 0d408440     	ld1.d	{ v0 }[0], [x2]
    1608: 4d408580     	ld1.d	{ v0 }[1], [x12]
    160c: 4f07e7e1     	movi.16b	v1, #255
    1610: 4f00e402     	movi.16b	v2, #0
    1614: 5280004b     	mov	w11, #2
    1618: 394000a9     	ldrb	w9, [x5]
    161c: 8b298046     	add	x6, x2, w9, sxtb
    1620: cb298049     	sub	x9, x2, w9, sxtb
    1624: 0d4084c5     	ld1.d	{ v5 }[0], [x6]
    1628: 910040c6     	add	x6, x6, #16
    162c: 0d408526     	ld1.d	{ v6 }[0], [x9]
    1630: 91004129     	add	x9, x9, #16
    1634: 4d4084c5     	ld1.d	{ v5 }[1], [x6]
    1638: 4d408526     	ld1.d	{ v6 }[1], [x9]
    163c: 3940010a     	ldrb	w10, [x8]
    1640: 6e257410     	uabd.16b	v16, v0, v5
    1644: 6e267414     	uabd.16b	v20, v0, v6
    1648: 6e384611     	ushl.16b	v17, v16, v24
    164c: 6e384695     	ushl.16b	v21, v20, v24
    1650: 6e312f31     	uqsub.16b	v17, v25, v17
    1654: 6e352f35     	uqsub.16b	v21, v25, v21
    1658: 6e253412     	cmhi.16b	v18, v0, v5
    165c: 6e263416     	cmhi.16b	v22, v0, v6
    1660: 6e306e31     	umin.16b	v17, v17, v16
    1664: 6e346eb5     	umin.16b	v21, v21, v20
    1668: 4e010d53     	dup.16b	v19, w10
    166c: 6e20ba30     	neg.16b	v16, v17
    1670: 6e20bab4     	neg.16b	v20, v21
    1674: 6e711e12     	bsl.16b	v18, v16, v17
    1678: 6e751e96     	bsl.16b	v22, v20, v21
    167c: 4e339641     	mla.16b	v1, v18, v19
    1680: 4e3396c2     	mla.16b	v2, v22, v19
    1684: 910004a5     	add	x5, x5, #1
    1688: 7100056b     	subs	w11, w11, #1
    168c: 91000508     	add	x8, x8, #1
    1690: 54fffc41     	b.ne	0x1618 <cdef_filter8_pri_edged_8bpc_neon+0x58>
    1694: 4e221425     	srhadd.16b	v5, v1, v2
    1698: 4e220426     	shadd.16b	v6, v1, v2
    169c: 4e20a8a1     	cmlt.16b	v1, v5, #0
    16a0: 6e651cc1     	bsl.16b	v1, v6, v5
    16a4: 4f0d2421     	srshr.16b	v1, v1, #3
    16a8: 6e203820     	usqadd.16b	v0, v1
    16ac: 0d818400     	st1.d	{ v0 }[0], [x0], x1
    16b0: 91008042     	add	x2, x2, #32
    16b4: 710008e7     	subs	w7, w7, #2
    16b8: 4d818400     	st1.d	{ v0 }[1], [x0], x1
    16bc: d10008a5     	sub	x5, x5, #2
    16c0: d1000908     	sub	x8, x8, #2
    16c4: 54fff9ec     	b.gt	0x1600 <cdef_filter8_pri_edged_8bpc_neon+0x40>
    16c8: d65f03c0     	ret

00000000000016cc <cdef_filter8_sec_edged_8bpc_neon>:
    16cc: 90000009     	adrp	x9, 0x1000 <cdef_filter8_sec_edged_8bpc_neon>
    16d0: 91000129     	add	x9, x9, #0
    16d4: 8b254525     	add	x5, x9, w5, uxtw #1
    16d8: 0f00e4fe     	movi.8b	v30, #7
    16dc: 0e010cdc     	dup.8b	v28, w6
    16e0: 4e010c9b     	dup.16b	v27, w4
    16e4: 0e1b2b38     	trn1.8b	v24, v25, v27
    16e8: 2e204b18     	clz.8b	v24, v24
    16ec: 2e3887d8     	sub.8b	v24, v30, v24
    16f0: 2e382f98     	uqsub.8b	v24, v28, v24
    16f4: 2e20bb18     	neg.8b	v24, v24
    16f8: 4e03071a     	dup.16b	v26, v24[1]
    16fc: 9100404c     	add	x12, x2, #16
    1700: 0d408440     	ld1.d	{ v0 }[0], [x2]
    1704: 4d408580     	ld1.d	{ v0 }[1], [x12]
    1708: 4f07e7e1     	movi.16b	v1, #255
    170c: 4f00e402     	movi.16b	v2, #0
    1710: 5280004b     	mov	w11, #2
    1714: 910010a5     	add	x5, x5, #4
    1718: 394000a9     	ldrb	w9, [x5]
    171c: 8b298046     	add	x6, x2, w9, sxtb
    1720: cb298049     	sub	x9, x2, w9, sxtb
    1724: 0d4084dc     	ld1.d	{ v28 }[0], [x6]
    1728: 910040c6     	add	x6, x6, #16
    172c: 0d40853d     	ld1.d	{ v29 }[0], [x9]
    1730: 91004129     	add	x9, x9, #16
    1734: 4d4084dc     	ld1.d	{ v28 }[1], [x6]
    1738: 4d40853d     	ld1.d	{ v29 }[1], [x9]
    173c: 910020a5     	add	x5, x5, #8
    1740: 394000a9     	ldrb	w9, [x5]
    1744: 8b298046     	add	x6, x2, w9, sxtb
    1748: cb298049     	sub	x9, x2, w9, sxtb
    174c: 0d4084c5     	ld1.d	{ v5 }[0], [x6]
    1750: 910040c6     	add	x6, x6, #16
    1754: 0d408526     	ld1.d	{ v6 }[0], [x9]
    1758: 91004129     	add	x9, x9, #16
    175c: 4d4084c5     	ld1.d	{ v5 }[1], [x6]
    1760: 4d408526     	ld1.d	{ v6 }[1], [x9]
    1764: 6e3c7410     	uabd.16b	v16, v0, v28
    1768: 6e3d7414     	uabd.16b	v20, v0, v29
    176c: 6e3a4611     	ushl.16b	v17, v16, v26
    1770: 6e3a4695     	ushl.16b	v21, v20, v26
    1774: 6e312f71     	uqsub.16b	v17, v27, v17
    1778: 6e352f75     	uqsub.16b	v21, v27, v21
    177c: 6e3c3412     	cmhi.16b	v18, v0, v28
    1780: 6e3d3416     	cmhi.16b	v22, v0, v29
    1784: 6e306e31     	umin.16b	v17, v17, v16
    1788: 6e346eb5     	umin.16b	v21, v21, v20
    178c: 4e010d73     	dup.16b	v19, w11
    1790: 6e20ba30     	neg.16b	v16, v17
    1794: 6e20bab4     	neg.16b	v20, v21
    1798: 6e711e12     	bsl.16b	v18, v16, v17
    179c: 6e751e96     	bsl.16b	v22, v20, v21
    17a0: 4e339641     	mla.16b	v1, v18, v19
    17a4: 4e3396c2     	mla.16b	v2, v22, v19
    17a8: 6e257410     	uabd.16b	v16, v0, v5
    17ac: 6e267414     	uabd.16b	v20, v0, v6
    17b0: 6e3a4611     	ushl.16b	v17, v16, v26
    17b4: 6e3a4695     	ushl.16b	v21, v20, v26
    17b8: 6e312f71     	uqsub.16b	v17, v27, v17
    17bc: 6e352f75     	uqsub.16b	v21, v27, v21
    17c0: 6e253412     	cmhi.16b	v18, v0, v5
    17c4: 6e263416     	cmhi.16b	v22, v0, v6
    17c8: 6e306e31     	umin.16b	v17, v17, v16
    17cc: 6e346eb5     	umin.16b	v21, v21, v20
    17d0: 4e010d73     	dup.16b	v19, w11
    17d4: 6e20ba30     	neg.16b	v16, v17
    17d8: 6e20bab4     	neg.16b	v20, v21
    17dc: 6e711e12     	bsl.16b	v18, v16, v17
    17e0: 6e751e96     	bsl.16b	v22, v20, v21
    17e4: 4e339641     	mla.16b	v1, v18, v19
    17e8: 4e3396c2     	mla.16b	v2, v22, v19
    17ec: d1002ca5     	sub	x5, x5, #11
    17f0: 7100056b     	subs	w11, w11, #1
    17f4: 54fff901     	b.ne	0x1714 <cdef_filter8_sec_edged_8bpc_neon+0x48>
    17f8: 4e221425     	srhadd.16b	v5, v1, v2
    17fc: 4e220426     	shadd.16b	v6, v1, v2
    1800: 4e20a8a1     	cmlt.16b	v1, v5, #0
    1804: 6e651cc1     	bsl.16b	v1, v6, v5
    1808: 4f0d2421     	srshr.16b	v1, v1, #3
    180c: 6e203820     	usqadd.16b	v0, v1
    1810: 0d818400     	st1.d	{ v0 }[0], [x0], x1
    1814: 91008042     	add	x2, x2, #32
    1818: 710008e7     	subs	w7, w7, #2
    181c: 4d818400     	st1.d	{ v0 }[1], [x0], x1
    1820: d10008a5     	sub	x5, x5, #2
    1824: 54fff6cc     	b.gt	0x16fc <cdef_filter8_sec_edged_8bpc_neon+0x30>
    1828: d65f03c0     	ret

000000000000182c <cdef_filter8_pri_sec_edged_8bpc_neon>:
    182c: 90000008     	adrp	x8, 0x1000 <cdef_filter8_pri_sec_edged_8bpc_neon>
    1830: 91000108     	add	x8, x8, #0
    1834: 12000069     	and	w9, w3, #0x1
    1838: 8b294508     	add	x8, x8, w9, uxtw #1
    183c: 90000009     	adrp	x9, 0x1000 <cdef_filter8_pri_sec_edged_8bpc_neon+0x10>
    1840: 91000129     	add	x9, x9, #0
    1844: 8b254525     	add	x5, x9, w5, uxtw #1
    1848: 0f00e4fe     	movi.8b	v30, #7
    184c: 0e010cdc     	dup.8b	v28, w6
    1850: 4e010c79     	dup.16b	v25, w3
    1854: 4e010c9b     	dup.16b	v27, w4
    1858: 0e1b2b38     	trn1.8b	v24, v25, v27
    185c: 2e204b18     	clz.8b	v24, v24
    1860: 2e3887d8     	sub.8b	v24, v30, v24
    1864: 2e382f98     	uqsub.8b	v24, v28, v24
    1868: 2e20bb18     	neg.8b	v24, v24
    186c: 4e03071a     	dup.16b	v26, v24[1]
    1870: 4e010718     	dup.16b	v24, v24[0]
    1874: 9100404c     	add	x12, x2, #16
    1878: 0d408440     	ld1.d	{ v0 }[0], [x2]
    187c: 4d408580     	ld1.d	{ v0 }[1], [x12]
    1880: 4f07e7e1     	movi.16b	v1, #255
    1884: 4f00e402     	movi.16b	v2, #0
    1888: 4ea01c03     	mov.16b	v3, v0
    188c: 4ea01c04     	mov.16b	v4, v0
    1890: 5280004b     	mov	w11, #2
    1894: 394000a9     	ldrb	w9, [x5]
    1898: 8b298046     	add	x6, x2, w9, sxtb
    189c: cb298049     	sub	x9, x2, w9, sxtb
    18a0: 0d4084c5     	ld1.d	{ v5 }[0], [x6]
    18a4: 910040c6     	add	x6, x6, #16
    18a8: 0d408526     	ld1.d	{ v6 }[0], [x9]
    18ac: 91004129     	add	x9, x9, #16
    18b0: 4d4084c5     	ld1.d	{ v5 }[1], [x6]
    18b4: 4d408526     	ld1.d	{ v6 }[1], [x9]
    18b8: 910010a5     	add	x5, x5, #4
    18bc: 394000a9     	ldrb	w9, [x5]
    18c0: 8b298046     	add	x6, x2, w9, sxtb
    18c4: cb298049     	sub	x9, x2, w9, sxtb
    18c8: 0d4084dc     	ld1.d	{ v28 }[0], [x6]
    18cc: 910040c6     	add	x6, x6, #16
    18d0: 0d40853d     	ld1.d	{ v29 }[0], [x9]
    18d4: 91004129     	add	x9, x9, #16
    18d8: 4d4084dc     	ld1.d	{ v28 }[1], [x6]
    18dc: 4d40853d     	ld1.d	{ v29 }[1], [x9]
    18e0: 3940010a     	ldrb	w10, [x8]
    18e4: 6e256c63     	umin.16b	v3, v3, v5
    18e8: 6e256484     	umax.16b	v4, v4, v5
    18ec: 6e266c63     	umin.16b	v3, v3, v6
    18f0: 6e266484     	umax.16b	v4, v4, v6
    18f4: 6e257410     	uabd.16b	v16, v0, v5
    18f8: 6e267414     	uabd.16b	v20, v0, v6
    18fc: 6e384611     	ushl.16b	v17, v16, v24
    1900: 6e384695     	ushl.16b	v21, v20, v24
    1904: 6e312f31     	uqsub.16b	v17, v25, v17
    1908: 6e352f35     	uqsub.16b	v21, v25, v21
    190c: 6e253412     	cmhi.16b	v18, v0, v5
    1910: 6e263416     	cmhi.16b	v22, v0, v6
    1914: 6e306e31     	umin.16b	v17, v17, v16
    1918: 6e346eb5     	umin.16b	v21, v21, v20
    191c: 4e010d53     	dup.16b	v19, w10
    1920: 6e20ba30     	neg.16b	v16, v17
    1924: 6e20bab4     	neg.16b	v20, v21
    1928: 6e711e12     	bsl.16b	v18, v16, v17
    192c: 6e751e96     	bsl.16b	v22, v20, v21
    1930: 4e339641     	mla.16b	v1, v18, v19
    1934: 4e3396c2     	mla.16b	v2, v22, v19
    1938: 910020a5     	add	x5, x5, #8
    193c: 394000a9     	ldrb	w9, [x5]
    1940: 8b298046     	add	x6, x2, w9, sxtb
    1944: cb298049     	sub	x9, x2, w9, sxtb
    1948: 0d4084c5     	ld1.d	{ v5 }[0], [x6]
    194c: 910040c6     	add	x6, x6, #16
    1950: 0d408526     	ld1.d	{ v6 }[0], [x9]
    1954: 91004129     	add	x9, x9, #16
    1958: 4d4084c5     	ld1.d	{ v5 }[1], [x6]
    195c: 4d408526     	ld1.d	{ v6 }[1], [x9]
    1960: 6e3c6c63     	umin.16b	v3, v3, v28
    1964: 6e3c6484     	umax.16b	v4, v4, v28
    1968: 6e3d6c63     	umin.16b	v3, v3, v29
    196c: 6e3d6484     	umax.16b	v4, v4, v29
    1970: 6e3c7410     	uabd.16b	v16, v0, v28
    1974: 6e3d7414     	uabd.16b	v20, v0, v29
    1978: 6e3a4611     	ushl.16b	v17, v16, v26
    197c: 6e3a4695     	ushl.16b	v21, v20, v26
    1980: 6e312f71     	uqsub.16b	v17, v27, v17
    1984: 6e352f75     	uqsub.16b	v21, v27, v21
    1988: 6e3c3412     	cmhi.16b	v18, v0, v28
    198c: 6e3d3416     	cmhi.16b	v22, v0, v29
    1990: 6e306e31     	umin.16b	v17, v17, v16
    1994: 6e346eb5     	umin.16b	v21, v21, v20
    1998: 4e010d73     	dup.16b	v19, w11
    199c: 6e20ba30     	neg.16b	v16, v17
    19a0: 6e20bab4     	neg.16b	v20, v21
    19a4: 6e711e12     	bsl.16b	v18, v16, v17
    19a8: 6e751e96     	bsl.16b	v22, v20, v21
    19ac: 4e339641     	mla.16b	v1, v18, v19
    19b0: 4e3396c2     	mla.16b	v2, v22, v19
    19b4: 6e256c63     	umin.16b	v3, v3, v5
    19b8: 6e256484     	umax.16b	v4, v4, v5
    19bc: 6e266c63     	umin.16b	v3, v3, v6
    19c0: 6e266484     	umax.16b	v4, v4, v6
    19c4: 6e257410     	uabd.16b	v16, v0, v5
    19c8: 6e267414     	uabd.16b	v20, v0, v6
    19cc: 6e3a4611     	ushl.16b	v17, v16, v26
    19d0: 6e3a4695     	ushl.16b	v21, v20, v26
    19d4: 6e312f71     	uqsub.16b	v17, v27, v17
    19d8: 6e352f75     	uqsub.16b	v21, v27, v21
    19dc: 6e253412     	cmhi.16b	v18, v0, v5
    19e0: 6e263416     	cmhi.16b	v22, v0, v6
    19e4: 6e306e31     	umin.16b	v17, v17, v16
    19e8: 6e346eb5     	umin.16b	v21, v21, v20
    19ec: 4e010d73     	dup.16b	v19, w11
    19f0: 6e20ba30     	neg.16b	v16, v17
    19f4: 6e20bab4     	neg.16b	v20, v21
    19f8: 6e711e12     	bsl.16b	v18, v16, v17
    19fc: 6e751e96     	bsl.16b	v22, v20, v21
    1a00: 4e339641     	mla.16b	v1, v18, v19
    1a04: 4e3396c2     	mla.16b	v2, v22, v19
    1a08: d1002ca5     	sub	x5, x5, #11
    1a0c: 7100056b     	subs	w11, w11, #1
    1a10: 91000508     	add	x8, x8, #1
    1a14: 54fff401     	b.ne	0x1894 <cdef_filter8_pri_sec_edged_8bpc_neon+0x68>
    1a18: 4e221425     	srhadd.16b	v5, v1, v2
    1a1c: 4e220426     	shadd.16b	v6, v1, v2
    1a20: 4e20a8a1     	cmlt.16b	v1, v5, #0
    1a24: 6e651cc1     	bsl.16b	v1, v6, v5
    1a28: 4f0d2421     	srshr.16b	v1, v1, #3
    1a2c: 6e203820     	usqadd.16b	v0, v1
    1a30: 6e246c00     	umin.16b	v0, v0, v4
    1a34: 6e236400     	umax.16b	v0, v0, v3
    1a38: 0d818400     	st1.d	{ v0 }[0], [x0], x1
    1a3c: 91008042     	add	x2, x2, #32
    1a40: 710008e7     	subs	w7, w7, #2
    1a44: 4d818400     	st1.d	{ v0 }[1], [x0], x1
    1a48: d10008a5     	sub	x5, x5, #2
    1a4c: d1000908     	sub	x8, x8, #2
    1a50: 54fff12c     	b.gt	0x1874 <cdef_filter8_pri_sec_edged_8bpc_neon+0x48>
    1a54: d65f03c0     	ret

0000000000001a58 <cdef_filter4_pri_edged_8bpc_neon>:
    1a58: 90000008     	adrp	x8, 0x1000 <cdef_filter4_pri_edged_8bpc_neon>
    1a5c: 91000108     	add	x8, x8, #0
    1a60: 12000069     	and	w9, w3, #0x1
    1a64: 8b294508     	add	x8, x8, w9, uxtw #1
    1a68: 90000009     	adrp	x9, 0x1000 <cdef_filter4_pri_edged_8bpc_neon+0x10>
    1a6c: 91000129     	add	x9, x9, #0
    1a70: 8b254525     	add	x5, x9, w5, uxtw #1
    1a74: 0f00e4fe     	movi.8b	v30, #7
    1a78: 0e010cdc     	dup.8b	v28, w6
    1a7c: 4e010c79     	dup.16b	v25, w3
    1a80: 0e1b2b38     	trn1.8b	v24, v25, v27
    1a84: 2e204b18     	clz.8b	v24, v24
    1a88: 2e3887d8     	sub.8b	v24, v30, v24
    1a8c: 2e382f98     	uqsub.8b	v24, v28, v24
    1a90: 2e20bb18     	neg.8b	v24, v24
    1a94: 4e010718     	dup.16b	v24, v24[0]
    1a98: 9100204c     	add	x12, x2, #8
    1a9c: 9100404d     	add	x13, x2, #16
    1aa0: 9100604e     	add	x14, x2, #24
    1aa4: 0d408040     	ld1.s	{ v0 }[0], [x2]
    1aa8: 0d409180     	ld1.s	{ v0 }[1], [x12]
    1aac: 4d4081a0     	ld1.s	{ v0 }[2], [x13]
    1ab0: 4d4091c0     	ld1.s	{ v0 }[3], [x14]
    1ab4: 4f07e7e1     	movi.16b	v1, #255
    1ab8: 4f00e402     	movi.16b	v2, #0
    1abc: 5280004b     	mov	w11, #2
    1ac0: 394000a9     	ldrb	w9, [x5]
    1ac4: 8b298046     	add	x6, x2, w9, sxtb
    1ac8: cb298049     	sub	x9, x2, w9, sxtb
    1acc: 0d4080c5     	ld1.s	{ v5 }[0], [x6]
    1ad0: 910020c6     	add	x6, x6, #8
    1ad4: 0d408126     	ld1.s	{ v6 }[0], [x9]
    1ad8: 91002129     	add	x9, x9, #8
    1adc: 0d4090c5     	ld1.s	{ v5 }[1], [x6]
    1ae0: 910020c6     	add	x6, x6, #8
    1ae4: 0d409126     	ld1.s	{ v6 }[1], [x9]
    1ae8: 91002129     	add	x9, x9, #8
    1aec: 4d4080c5     	ld1.s	{ v5 }[2], [x6]
    1af0: 910020c6     	add	x6, x6, #8
    1af4: 4d408126     	ld1.s	{ v6 }[2], [x9]
    1af8: 91002129     	add	x9, x9, #8
    1afc: 4d4090c5     	ld1.s	{ v5 }[3], [x6]
    1b00: 4d409126     	ld1.s	{ v6 }[3], [x9]
    1b04: 3940010a     	ldrb	w10, [x8]
    1b08: 6e257410     	uabd.16b	v16, v0, v5
    1b0c: 6e267414     	uabd.16b	v20, v0, v6
    1b10: 6e384611     	ushl.16b	v17, v16, v24
    1b14: 6e384695     	ushl.16b	v21, v20, v24
    1b18: 6e312f31     	uqsub.16b	v17, v25, v17
    1b1c: 6e352f35     	uqsub.16b	v21, v25, v21
    1b20: 6e253412     	cmhi.16b	v18, v0, v5
    1b24: 6e263416     	cmhi.16b	v22, v0, v6
    1b28: 6e306e31     	umin.16b	v17, v17, v16
    1b2c: 6e346eb5     	umin.16b	v21, v21, v20
    1b30: 4e010d53     	dup.16b	v19, w10
    1b34: 6e20ba30     	neg.16b	v16, v17
    1b38: 6e20bab4     	neg.16b	v20, v21
    1b3c: 6e711e12     	bsl.16b	v18, v16, v17
    1b40: 6e751e96     	bsl.16b	v22, v20, v21
    1b44: 4e339641     	mla.16b	v1, v18, v19
    1b48: 4e3396c2     	mla.16b	v2, v22, v19
    1b4c: 910004a5     	add	x5, x5, #1
    1b50: 7100056b     	subs	w11, w11, #1
    1b54: 91000508     	add	x8, x8, #1
    1b58: 54fffb41     	b.ne	0x1ac0 <cdef_filter4_pri_edged_8bpc_neon+0x68>
    1b5c: 4e221425     	srhadd.16b	v5, v1, v2
    1b60: 4e220426     	shadd.16b	v6, v1, v2
    1b64: 4e20a8a1     	cmlt.16b	v1, v5, #0
    1b68: 6e651cc1     	bsl.16b	v1, v6, v5
    1b6c: 4f0d2421     	srshr.16b	v1, v1, #3
    1b70: 6e203820     	usqadd.16b	v0, v1
    1b74: 0d818000     	st1.s	{ v0 }[0], [x0], x1
    1b78: 91008042     	add	x2, x2, #32
    1b7c: 0d819000     	st1.s	{ v0 }[1], [x0], x1
    1b80: 710010e7     	subs	w7, w7, #4
    1b84: 4d818000     	st1.s	{ v0 }[2], [x0], x1
    1b88: 4d819000     	st1.s	{ v0 }[3], [x0], x1
    1b8c: d10008a5     	sub	x5, x5, #2
    1b90: d1000908     	sub	x8, x8, #2
    1b94: 54fff82c     	b.gt	0x1a98 <cdef_filter4_pri_edged_8bpc_neon+0x40>
    1b98: d65f03c0     	ret

0000000000001b9c <cdef_filter4_sec_edged_8bpc_neon>:
    1b9c: 90000009     	adrp	x9, 0x1000 <cdef_filter4_sec_edged_8bpc_neon>
    1ba0: 91000129     	add	x9, x9, #0
    1ba4: 8b254525     	add	x5, x9, w5, uxtw #1
    1ba8: 0f00e4fe     	movi.8b	v30, #7
    1bac: 0e010cdc     	dup.8b	v28, w6
    1bb0: 4e010c9b     	dup.16b	v27, w4
    1bb4: 0e1b2b38     	trn1.8b	v24, v25, v27
    1bb8: 2e204b18     	clz.8b	v24, v24
    1bbc: 2e3887d8     	sub.8b	v24, v30, v24
    1bc0: 2e382f98     	uqsub.8b	v24, v28, v24
    1bc4: 2e20bb18     	neg.8b	v24, v24
    1bc8: 4e03071a     	dup.16b	v26, v24[1]
    1bcc: 9100204c     	add	x12, x2, #8
    1bd0: 9100404d     	add	x13, x2, #16
    1bd4: 9100604e     	add	x14, x2, #24
    1bd8: 0d408040     	ld1.s	{ v0 }[0], [x2]
    1bdc: 0d409180     	ld1.s	{ v0 }[1], [x12]
    1be0: 4d4081a0     	ld1.s	{ v0 }[2], [x13]
    1be4: 4d4091c0     	ld1.s	{ v0 }[3], [x14]
    1be8: 4f07e7e1     	movi.16b	v1, #255
    1bec: 4f00e402     	movi.16b	v2, #0
    1bf0: 5280004b     	mov	w11, #2
    1bf4: 910010a5     	add	x5, x5, #4
    1bf8: 394000a9     	ldrb	w9, [x5]
    1bfc: 8b298046     	add	x6, x2, w9, sxtb
    1c00: cb298049     	sub	x9, x2, w9, sxtb
    1c04: 0d4080dc     	ld1.s	{ v28 }[0], [x6]
    1c08: 910020c6     	add	x6, x6, #8
    1c0c: 0d40813d     	ld1.s	{ v29 }[0], [x9]
    1c10: 91002129     	add	x9, x9, #8
    1c14: 0d4090dc     	ld1.s	{ v28 }[1], [x6]
    1c18: 910020c6     	add	x6, x6, #8
    1c1c: 0d40913d     	ld1.s	{ v29 }[1], [x9]
    1c20: 91002129     	add	x9, x9, #8
    1c24: 4d4080dc     	ld1.s	{ v28 }[2], [x6]
    1c28: 910020c6     	add	x6, x6, #8
    1c2c: 4d40813d     	ld1.s	{ v29 }[2], [x9]
    1c30: 91002129     	add	x9, x9, #8
    1c34: 4d4090dc     	ld1.s	{ v28 }[3], [x6]
    1c38: 4d40913d     	ld1.s	{ v29 }[3], [x9]
    1c3c: 910020a5     	add	x5, x5, #8
    1c40: 394000a9     	ldrb	w9, [x5]
    1c44: 8b298046     	add	x6, x2, w9, sxtb
    1c48: cb298049     	sub	x9, x2, w9, sxtb
    1c4c: 0d4080c5     	ld1.s	{ v5 }[0], [x6]
    1c50: 910020c6     	add	x6, x6, #8
    1c54: 0d408126     	ld1.s	{ v6 }[0], [x9]
    1c58: 91002129     	add	x9, x9, #8
    1c5c: 0d4090c5     	ld1.s	{ v5 }[1], [x6]
    1c60: 910020c6     	add	x6, x6, #8
    1c64: 0d409126     	ld1.s	{ v6 }[1], [x9]
    1c68: 91002129     	add	x9, x9, #8
    1c6c: 4d4080c5     	ld1.s	{ v5 }[2], [x6]
    1c70: 910020c6     	add	x6, x6, #8
    1c74: 4d408126     	ld1.s	{ v6 }[2], [x9]
    1c78: 91002129     	add	x9, x9, #8
    1c7c: 4d4090c5     	ld1.s	{ v5 }[3], [x6]
    1c80: 4d409126     	ld1.s	{ v6 }[3], [x9]
    1c84: 6e3c7410     	uabd.16b	v16, v0, v28
    1c88: 6e3d7414     	uabd.16b	v20, v0, v29
    1c8c: 6e3a4611     	ushl.16b	v17, v16, v26
    1c90: 6e3a4695     	ushl.16b	v21, v20, v26
    1c94: 6e312f71     	uqsub.16b	v17, v27, v17
    1c98: 6e352f75     	uqsub.16b	v21, v27, v21
    1c9c: 6e3c3412     	cmhi.16b	v18, v0, v28
    1ca0: 6e3d3416     	cmhi.16b	v22, v0, v29
    1ca4: 6e306e31     	umin.16b	v17, v17, v16
    1ca8: 6e346eb5     	umin.16b	v21, v21, v20
    1cac: 4e010d73     	dup.16b	v19, w11
    1cb0: 6e20ba30     	neg.16b	v16, v17
    1cb4: 6e20bab4     	neg.16b	v20, v21
    1cb8: 6e711e12     	bsl.16b	v18, v16, v17
    1cbc: 6e751e96     	bsl.16b	v22, v20, v21
    1cc0: 4e339641     	mla.16b	v1, v18, v19
    1cc4: 4e3396c2     	mla.16b	v2, v22, v19
    1cc8: 6e257410     	uabd.16b	v16, v0, v5
    1ccc: 6e267414     	uabd.16b	v20, v0, v6
    1cd0: 6e3a4611     	ushl.16b	v17, v16, v26
    1cd4: 6e3a4695     	ushl.16b	v21, v20, v26
    1cd8: 6e312f71     	uqsub.16b	v17, v27, v17
    1cdc: 6e352f75     	uqsub.16b	v21, v27, v21
    1ce0: 6e253412     	cmhi.16b	v18, v0, v5
    1ce4: 6e263416     	cmhi.16b	v22, v0, v6
    1ce8: 6e306e31     	umin.16b	v17, v17, v16
    1cec: 6e346eb5     	umin.16b	v21, v21, v20
    1cf0: 4e010d73     	dup.16b	v19, w11
    1cf4: 6e20ba30     	neg.16b	v16, v17
    1cf8: 6e20bab4     	neg.16b	v20, v21
    1cfc: 6e711e12     	bsl.16b	v18, v16, v17
    1d00: 6e751e96     	bsl.16b	v22, v20, v21
    1d04: 4e339641     	mla.16b	v1, v18, v19
    1d08: 4e3396c2     	mla.16b	v2, v22, v19
    1d0c: d1002ca5     	sub	x5, x5, #11
    1d10: 7100056b     	subs	w11, w11, #1
    1d14: 54fff701     	b.ne	0x1bf4 <cdef_filter4_sec_edged_8bpc_neon+0x58>
    1d18: 4e221425     	srhadd.16b	v5, v1, v2
    1d1c: 4e220426     	shadd.16b	v6, v1, v2
    1d20: 4e20a8a1     	cmlt.16b	v1, v5, #0
    1d24: 6e651cc1     	bsl.16b	v1, v6, v5
    1d28: 4f0d2421     	srshr.16b	v1, v1, #3
    1d2c: 6e203820     	usqadd.16b	v0, v1
    1d30: 0d818000     	st1.s	{ v0 }[0], [x0], x1
    1d34: 91008042     	add	x2, x2, #32
    1d38: 0d819000     	st1.s	{ v0 }[1], [x0], x1
    1d3c: 710010e7     	subs	w7, w7, #4
    1d40: 4d818000     	st1.s	{ v0 }[2], [x0], x1
    1d44: 4d819000     	st1.s	{ v0 }[3], [x0], x1
    1d48: d10008a5     	sub	x5, x5, #2
    1d4c: 54fff40c     	b.gt	0x1bcc <cdef_filter4_sec_edged_8bpc_neon+0x30>
    1d50: d65f03c0     	ret

0000000000001d54 <cdef_filter4_pri_sec_edged_8bpc_neon>:
    1d54: 90000008     	adrp	x8, 0x1000 <cdef_filter4_pri_sec_edged_8bpc_neon>
    1d58: 91000108     	add	x8, x8, #0
    1d5c: 12000069     	and	w9, w3, #0x1
    1d60: 8b294508     	add	x8, x8, w9, uxtw #1
    1d64: 90000009     	adrp	x9, 0x1000 <cdef_filter4_pri_sec_edged_8bpc_neon+0x10>
    1d68: 91000129     	add	x9, x9, #0
    1d6c: 8b254525     	add	x5, x9, w5, uxtw #1
    1d70: 0f00e4fe     	movi.8b	v30, #7
    1d74: 0e010cdc     	dup.8b	v28, w6
    1d78: 4e010c79     	dup.16b	v25, w3
    1d7c: 4e010c9b     	dup.16b	v27, w4
    1d80: 0e1b2b38     	trn1.8b	v24, v25, v27
    1d84: 2e204b18     	clz.8b	v24, v24
    1d88: 2e3887d8     	sub.8b	v24, v30, v24
    1d8c: 2e382f98     	uqsub.8b	v24, v28, v24
    1d90: 2e20bb18     	neg.8b	v24, v24
    1d94: 4e03071a     	dup.16b	v26, v24[1]
    1d98: 4e010718     	dup.16b	v24, v24[0]
    1d9c: 9100204c     	add	x12, x2, #8
    1da0: 9100404d     	add	x13, x2, #16
    1da4: 9100604e     	add	x14, x2, #24
    1da8: 0d408040     	ld1.s	{ v0 }[0], [x2]
    1dac: 0d409180     	ld1.s	{ v0 }[1], [x12]
    1db0: 4d4081a0     	ld1.s	{ v0 }[2], [x13]
    1db4: 4d4091c0     	ld1.s	{ v0 }[3], [x14]
    1db8: 4f07e7e1     	movi.16b	v1, #255
    1dbc: 4f00e402     	movi.16b	v2, #0
    1dc0: 4ea01c03     	mov.16b	v3, v0
    1dc4: 4ea01c04     	mov.16b	v4, v0
    1dc8: 5280004b     	mov	w11, #2
    1dcc: 394000a9     	ldrb	w9, [x5]
    1dd0: 8b298046     	add	x6, x2, w9, sxtb
    1dd4: cb298049     	sub	x9, x2, w9, sxtb
    1dd8: 0d4080c5     	ld1.s	{ v5 }[0], [x6]
    1ddc: 910020c6     	add	x6, x6, #8
    1de0: 0d408126     	ld1.s	{ v6 }[0], [x9]
    1de4: 91002129     	add	x9, x9, #8
    1de8: 0d4090c5     	ld1.s	{ v5 }[1], [x6]
    1dec: 910020c6     	add	x6, x6, #8
    1df0: 0d409126     	ld1.s	{ v6 }[1], [x9]
    1df4: 91002129     	add	x9, x9, #8
    1df8: 4d4080c5     	ld1.s	{ v5 }[2], [x6]
    1dfc: 910020c6     	add	x6, x6, #8
    1e00: 4d408126     	ld1.s	{ v6 }[2], [x9]
    1e04: 91002129     	add	x9, x9, #8
    1e08: 4d4090c5     	ld1.s	{ v5 }[3], [x6]
    1e0c: 4d409126     	ld1.s	{ v6 }[3], [x9]
    1e10: 910010a5     	add	x5, x5, #4
    1e14: 394000a9     	ldrb	w9, [x5]
    1e18: 8b298046     	add	x6, x2, w9, sxtb
    1e1c: cb298049     	sub	x9, x2, w9, sxtb
    1e20: 0d4080dc     	ld1.s	{ v28 }[0], [x6]
    1e24: 910020c6     	add	x6, x6, #8
    1e28: 0d40813d     	ld1.s	{ v29 }[0], [x9]
    1e2c: 91002129     	add	x9, x9, #8
    1e30: 0d4090dc     	ld1.s	{ v28 }[1], [x6]
    1e34: 910020c6     	add	x6, x6, #8
    1e38: 0d40913d     	ld1.s	{ v29 }[1], [x9]
    1e3c: 91002129     	add	x9, x9, #8
    1e40: 4d4080dc     	ld1.s	{ v28 }[2], [x6]
    1e44: 910020c6     	add	x6, x6, #8
    1e48: 4d40813d     	ld1.s	{ v29 }[2], [x9]
    1e4c: 91002129     	add	x9, x9, #8
    1e50: 4d4090dc     	ld1.s	{ v28 }[3], [x6]
    1e54: 4d40913d     	ld1.s	{ v29 }[3], [x9]
    1e58: 3940010a     	ldrb	w10, [x8]
    1e5c: 6e256c63     	umin.16b	v3, v3, v5
    1e60: 6e256484     	umax.16b	v4, v4, v5
    1e64: 6e266c63     	umin.16b	v3, v3, v6
    1e68: 6e266484     	umax.16b	v4, v4, v6
    1e6c: 6e257410     	uabd.16b	v16, v0, v5
    1e70: 6e267414     	uabd.16b	v20, v0, v6
    1e74: 6e384611     	ushl.16b	v17, v16, v24
    1e78: 6e384695     	ushl.16b	v21, v20, v24
    1e7c: 6e312f31     	uqsub.16b	v17, v25, v17
    1e80: 6e352f35     	uqsub.16b	v21, v25, v21
    1e84: 6e253412     	cmhi.16b	v18, v0, v5
    1e88: 6e263416     	cmhi.16b	v22, v0, v6
    1e8c: 6e306e31     	umin.16b	v17, v17, v16
    1e90: 6e346eb5     	umin.16b	v21, v21, v20
    1e94: 4e010d53     	dup.16b	v19, w10
    1e98: 6e20ba30     	neg.16b	v16, v17
    1e9c: 6e20bab4     	neg.16b	v20, v21
    1ea0: 6e711e12     	bsl.16b	v18, v16, v17
    1ea4: 6e751e96     	bsl.16b	v22, v20, v21
    1ea8: 4e339641     	mla.16b	v1, v18, v19
    1eac: 4e3396c2     	mla.16b	v2, v22, v19
    1eb0: 910020a5     	add	x5, x5, #8
    1eb4: 394000a9     	ldrb	w9, [x5]
    1eb8: 8b298046     	add	x6, x2, w9, sxtb
    1ebc: cb298049     	sub	x9, x2, w9, sxtb
    1ec0: 0d4080c5     	ld1.s	{ v5 }[0], [x6]
    1ec4: 910020c6     	add	x6, x6, #8
    1ec8: 0d408126     	ld1.s	{ v6 }[0], [x9]
    1ecc: 91002129     	add	x9, x9, #8
    1ed0: 0d4090c5     	ld1.s	{ v5 }[1], [x6]
    1ed4: 910020c6     	add	x6, x6, #8
    1ed8: 0d409126     	ld1.s	{ v6 }[1], [x9]
    1edc: 91002129     	add	x9, x9, #8
    1ee0: 4d4080c5     	ld1.s	{ v5 }[2], [x6]
    1ee4: 910020c6     	add	x6, x6, #8
    1ee8: 4d408126     	ld1.s	{ v6 }[2], [x9]
    1eec: 91002129     	add	x9, x9, #8
    1ef0: 4d4090c5     	ld1.s	{ v5 }[3], [x6]
    1ef4: 4d409126     	ld1.s	{ v6 }[3], [x9]
    1ef8: 6e3c6c63     	umin.16b	v3, v3, v28
    1efc: 6e3c6484     	umax.16b	v4, v4, v28
    1f00: 6e3d6c63     	umin.16b	v3, v3, v29
    1f04: 6e3d6484     	umax.16b	v4, v4, v29
    1f08: 6e3c7410     	uabd.16b	v16, v0, v28
    1f0c: 6e3d7414     	uabd.16b	v20, v0, v29
    1f10: 6e3a4611     	ushl.16b	v17, v16, v26
    1f14: 6e3a4695     	ushl.16b	v21, v20, v26
    1f18: 6e312f71     	uqsub.16b	v17, v27, v17
    1f1c: 6e352f75     	uqsub.16b	v21, v27, v21
    1f20: 6e3c3412     	cmhi.16b	v18, v0, v28
    1f24: 6e3d3416     	cmhi.16b	v22, v0, v29
    1f28: 6e306e31     	umin.16b	v17, v17, v16
    1f2c: 6e346eb5     	umin.16b	v21, v21, v20
    1f30: 4e010d73     	dup.16b	v19, w11
    1f34: 6e20ba30     	neg.16b	v16, v17
    1f38: 6e20bab4     	neg.16b	v20, v21
    1f3c: 6e711e12     	bsl.16b	v18, v16, v17
    1f40: 6e751e96     	bsl.16b	v22, v20, v21
    1f44: 4e339641     	mla.16b	v1, v18, v19
    1f48: 4e3396c2     	mla.16b	v2, v22, v19
    1f4c: 6e256c63     	umin.16b	v3, v3, v5
    1f50: 6e256484     	umax.16b	v4, v4, v5
    1f54: 6e266c63     	umin.16b	v3, v3, v6
    1f58: 6e266484     	umax.16b	v4, v4, v6
    1f5c: 6e257410     	uabd.16b	v16, v0, v5
    1f60: 6e267414     	uabd.16b	v20, v0, v6
    1f64: 6e3a4611     	ushl.16b	v17, v16, v26
    1f68: 6e3a4695     	ushl.16b	v21, v20, v26
    1f6c: 6e312f71     	uqsub.16b	v17, v27, v17
    1f70: 6e352f75     	uqsub.16b	v21, v27, v21
    1f74: 6e253412     	cmhi.16b	v18, v0, v5
    1f78: 6e263416     	cmhi.16b	v22, v0, v6
    1f7c: 6e306e31     	umin.16b	v17, v17, v16
    1f80: 6e346eb5     	umin.16b	v21, v21, v20
    1f84: 4e010d73     	dup.16b	v19, w11
    1f88: 6e20ba30     	neg.16b	v16, v17
    1f8c: 6e20bab4     	neg.16b	v20, v21
    1f90: 6e711e12     	bsl.16b	v18, v16, v17
    1f94: 6e751e96     	bsl.16b	v22, v20, v21
    1f98: 4e339641     	mla.16b	v1, v18, v19
    1f9c: 4e3396c2     	mla.16b	v2, v22, v19
    1fa0: d1002ca5     	sub	x5, x5, #11
    1fa4: 7100056b     	subs	w11, w11, #1
    1fa8: 91000508     	add	x8, x8, #1
    1fac: 54fff101     	b.ne	0x1dcc <cdef_filter4_pri_sec_edged_8bpc_neon+0x78>
    1fb0: 4e221425     	srhadd.16b	v5, v1, v2
    1fb4: 4e220426     	shadd.16b	v6, v1, v2
    1fb8: 4e20a8a1     	cmlt.16b	v1, v5, #0
    1fbc: 6e651cc1     	bsl.16b	v1, v6, v5
    1fc0: 4f0d2421     	srshr.16b	v1, v1, #3
    1fc4: 6e203820     	usqadd.16b	v0, v1
    1fc8: 6e246c00     	umin.16b	v0, v0, v4
    1fcc: 6e236400     	umax.16b	v0, v0, v3
    1fd0: 0d818000     	st1.s	{ v0 }[0], [x0], x1
    1fd4: 91008042     	add	x2, x2, #32
    1fd8: 0d819000     	st1.s	{ v0 }[1], [x0], x1
    1fdc: 710010e7     	subs	w7, w7, #4
    1fe0: 4d818000     	st1.s	{ v0 }[2], [x0], x1
    1fe4: 4d819000     	st1.s	{ v0 }[3], [x0], x1
    1fe8: d10008a5     	sub	x5, x5, #2
    1fec: d1000908     	sub	x8, x8, #2
    1ff0: 54ffed6c     	b.gt	0x1d9c <cdef_filter4_pri_sec_edged_8bpc_neon+0x48>
    1ff4: d65f03c0     	ret
