
object-files/ca81b3637afdb6b5-msac.o:	file format mach-o arm64

Disassembly of section __TEXT,__text:

0000000000000000 <msac_decode_symbol_adapt4_neon>:
       0: 91006008     	add	x8, x0, #24
       4: 0c407420     	ld1.4h	{ v0 }, [x1]
       8: 0d40c51d     	ld1r.4h	{ v29 }, [x8]
       c: 90000009     	adrp	x9, 0x0 <msac_decode_symbol_adapt4_neon+0xc>
      10: 91000129     	add	x9, x9, #0
      14: 0f03a7ff     	movi.4h	v31, #127, lsl #8
      18: cb02052a     	sub	x10, x9, x2, lsl #1
      1c: 2f0187fe     	mvni.4h	v30, #63
      20: 0e3f1fa7     	and.8b	v7, v29, v31
      24: 0e3e1c02     	and.8b	v2, v0, v30
      28: 0c407544     	ld1.4h	{ v4 }, [x10]
      2c: 0e67b446     	sqdmulh.4h	v6, v2, v7
      30: fd40081c     	ldr	d28, [x0, #16]
      34: 0e648444     	add.4h	v4, v2, v4
      38: 0e6484c4     	add.4h	v4, v6, v4
      3c: 0e0e079e     	dup.4h	v30, v28[3]
      40: 2e643fc2     	cmhs.4h	v2, v30, v4
      44: 2e0433bd     	ext.8b	v29, v29, v4, #6
      48: 4e083c4f     	mov.d	x15, v2[0]
      4c: b9402004     	ldr	w4, [x0, #32]
      50: dac00def     	rev	x15, x15
      54: 2e6487bd     	sub.4h	v29, v29, v4
      58: dac011ef     	clz	x15, x15
      5c: 34000224     	cbz	w4, 0xa0 <msac_decode_symbol_adapt4_neon+0xa0>
      60: 78627823     	ldrh	w3, [x1, x2, lsl #1]
      64: 2a2203ee     	mvn	w14, w2
      68: 12800064     	mov	w4, #-4
      6c: 31000ddf     	cmn	w14, #3
      70: 2e628410     	sub.4h	v16, v0, v2
      74: 0f04b402     	orr.4h	v2, #128, lsl #8
      78: 53047c6e     	lsr	w14, w3, #4
      7c: 5a0e0084     	sbc	w4, w4, w14
      80: 2e608442     	sub.4h	v2, v2, v0
      84: 0e020c86     	dup.4h	v6, w4
      88: 4b431463     	sub	w3, w3, w3, lsr #5
      8c: 0e664442     	sshl.4h	v2, v2, v6
      90: 11000463     	add	w3, w3, #1
      94: 0e628600     	add.4h	v0, v16, v2
      98: 0c007420     	st1.4h	{ v0 }, [x1]
      9c: 78227823     	strh	w3, [x1, x2, lsl #1]
      a0: b9401c06     	ldr	w6, [x0, #28]
      a4: f9400807     	ldr	x7, [x0, #16]
      a8: 4e083fa4     	mov.d	x4, v29[0]
      ac: 4e083c83     	mov.d	x3, v4[0]
      b0: 9acf2484     	lsr	x4, x4, x15
      b4: 9acf2463     	lsr	x3, x3, x15
      b8: 53103c85     	lsl	w5, w4, #16
      bc: cb03c0e7     	sub	x7, x7, x3, lsl #48
      c0: 5ac010a5     	clz	w5, w5
      c4: 1ac52084     	lsl	w4, w4, w5
      c8: 6b0500c6     	subs	w6, w6, w5
      cc: 9ac520e7     	lsl	x7, x7, x5
      d0: 79003004     	strh	w4, [x0, #24]
      d4: 540000a3     	b.lo	0xe8 <msac_decode_symbol_adapt4_neon+0xe8>
      d8: b9001c06     	str	w6, [x0, #28]
      dc: f9000807     	str	x7, [x0, #16]
      e0: 53047de0     	lsr	w0, w15, #4
      e4: d65f03c0     	ret
      e8: 53047def     	lsr	w15, w15, #4
      ec: 14000001     	b	0xf0 <msac_decode_symbol_adapt4_neon+0xf0>
      f0: a9401003     	ldp	x3, x4, [x0]
      f4: 91002065     	add	x5, x3, #8
      f8: eb0400a5     	subs	x5, x5, x4
      fc: 54000268     	b.hi	0x148 <msac_decode_symbol_adapt4_neon+0x148>
     100: f9400068     	ldr	x8, [x3]
     104: 5100c0c4     	sub	w4, w6, #48
     108: aa2803e8     	mvn	x8, x8
     10c: 4b0403e5     	neg	w5, w4
     110: dac00d08     	rev	x8, x8
     114: 53037ca5     	lsr	w5, w5, #3
     118: 9ac42508     	lsr	x8, x8, x4
     11c: 8b050063     	add	x3, x3, x5
     120: 0b050cc6     	add	w6, w6, w5, lsl #3
     124: f9000003     	str	x3, [x0]
     128: aa0800e7     	orr	x7, x7, x8
     12c: b9001c06     	str	w6, [x0, #28]
     130: f9000807     	str	x7, [x0, #16]
     134: 2a0f03e0     	mov	w0, w15
     138: d65f03c0     	ret
     13c: 510040c8     	sub	w8, w6, #16
     140: 9ac82d08     	ror	x8, x8, x8
     144: 17fffff9     	b	0x128 <msac_decode_symbol_adapt4_neon+0x128>
     148: eb04007f     	cmp	x3, x4
     14c: 54ffff82     	b.hs	0x13c <msac_decode_symbol_adapt4_neon+0x13c>
     150: f85f8088     	ldur	x8, [x4, #-8]
     154: 531d70a5     	lsl	w5, w5, #3
     158: 9ac52508     	lsr	x8, x8, x5
     15c: 5100c0c5     	sub	w5, w6, #48
     160: aa2803e8     	mvn	x8, x8
     164: 4b030084     	sub	w4, w4, w3
     168: dac00d08     	rev	x8, x8
     16c: 9ac52508     	lsr	x8, x8, x5
     170: 4b0503e5     	neg	w5, w5
     174: 53037ca5     	lsr	w5, w5, #3
     178: 6b0400bf     	cmp	w5, w4
     17c: 1a8430a5     	csel	w5, w5, w4, lo
     180: 17ffffe7     	b	0x11c <msac_decode_symbol_adapt4_neon+0x11c>

0000000000000184 <msac_decode_symbol_adapt8_neon>:
     184: 91006008     	add	x8, x0, #24
     188: 4c407420     	ld1.8h	{ v0 }, [x1]
     18c: 4d40c51d     	ld1r.8h	{ v29 }, [x8]
     190: 90000009     	adrp	x9, 0x0 <msac_decode_symbol_adapt8_neon+0xc>
     194: 91000129     	add	x9, x9, #0
     198: 4f03a7ff     	movi.8h	v31, #127, lsl #8
     19c: cb02052a     	sub	x10, x9, x2, lsl #1
     1a0: 6f0187fe     	mvni.8h	v30, #63
     1a4: 4e3f1fa7     	and.16b	v7, v29, v31
     1a8: 4e3e1c02     	and.16b	v2, v0, v30
     1ac: 4c407544     	ld1.8h	{ v4 }, [x10]
     1b0: 4e67b446     	sqdmulh.8h	v6, v2, v7
     1b4: fd40081c     	ldr	d28, [x0, #16]
     1b8: 4e648444     	add.8h	v4, v2, v4
     1bc: 4e6484c4     	add.8h	v4, v6, v4
     1c0: 4e0e079e     	dup.8h	v30, v28[3]
     1c4: 3cc2213f     	ldur	q31, [x9, #34]
     1c8: 6e643fc2     	cmhs.8h	v2, v30, v4
     1cc: 4e221fff     	and.16b	v31, v31, v2
     1d0: 6e0473bd     	ext.16b	v29, v29, v4, #14
     1d4: 4e71bbff     	addv.8h	h31, v31
     1d8: b9402004     	ldr	w4, [x0, #32]
     1dc: 6e6487de     	sub.8h	v30, v30, v4
     1e0: 0e012fef     	smov.b	w15, v31[0]
     1e4: 6e6487bd     	sub.8h	v29, v29, v4
     1e8: 34000224     	cbz	w4, 0x22c <msac_decode_symbol_adapt8_neon+0xa8>
     1ec: 78627823     	ldrh	w3, [x1, x2, lsl #1]
     1f0: 2a2203ee     	mvn	w14, w2
     1f4: 12800064     	mov	w4, #-4
     1f8: 31000ddf     	cmn	w14, #3
     1fc: 6e628410     	sub.8h	v16, v0, v2
     200: 4f04b402     	orr.8h	v2, #128, lsl #8
     204: 53047c6e     	lsr	w14, w3, #4
     208: 5a0e0084     	sbc	w4, w4, w14
     20c: 6e608442     	sub.8h	v2, v2, v0
     210: 4e020c86     	dup.8h	v6, w4
     214: 4b431463     	sub	w3, w3, w3, lsr #5
     218: 4e664442     	sshl.8h	v2, v2, v6
     21c: 11000463     	add	w3, w3, #1
     220: 4e628600     	add.8h	v0, v16, v2
     224: 4c007420     	st1.8h	{ v0 }, [x1]
     228: 78227823     	strh	w3, [x1, x2, lsl #1]
     22c: b9401c06     	ldr	w6, [x0, #28]
     230: 0e1f03de     	tbl.8b	v30, { v30 }, v31
     234: 0e1f03bd     	tbl.8b	v29, { v29 }, v31
     238: 6e0e07dc     	mov.h	v28[3], v30[0]
     23c: 2e604ba0     	clz.4h	v0, v29
     240: 0e023c05     	umov.h	w5, v0[0]
     244: 2e6047bd     	ushl.4h	v29, v29, v0
     248: 7ee0479c     	ushl	d28, d28, d0
     24c: 6b0500c6     	subs	w6, w6, w5
     250: 7d00301d     	str	h29, [x0, #24]
     254: 540000a3     	b.lo	0x268 <msac_decode_symbol_adapt8_neon+0xe4>
     258: b9001c06     	str	w6, [x0, #28]
     25c: fd00081c     	str	d28, [x0, #16]
     260: 53017de0     	lsr	w0, w15, #1
     264: d65f03c0     	ret
     268: 53017def     	lsr	w15, w15, #1
     26c: 4e083f87     	mov.d	x7, v28[0]
     270: 17ffffa0     	b	0xf0 <msac_decode_symbol_adapt4_neon+0xf0>

0000000000000274 <msac_decode_symbol_adapt16_neon>:
     274: d100c3ff     	sub	sp, sp, #48
     278: 91006008     	add	x8, x0, #24
     27c: 4c40a420     	ld1.8h	{ v0, v1 }, [x1]
     280: 4d40c51d     	ld1r.8h	{ v29 }, [x8]
     284: 90000009     	adrp	x9, 0x0 <msac_decode_symbol_adapt16_neon+0x10>
     288: 91000129     	add	x9, x9, #0
     28c: 4f03a7ff     	movi.8h	v31, #127, lsl #8
     290: cb02052a     	sub	x10, x9, x2, lsl #1
     294: 6f0187fe     	mvni.8h	v30, #63
     298: 4e3f1fa7     	and.16b	v7, v29, v31
     29c: 7d001ffd     	str	h29, [sp, #14]
     2a0: 4e3e1c02     	and.16b	v2, v0, v30
     2a4: 4e3e1c23     	and.16b	v3, v1, v30
     2a8: 4c40a544     	ld1.8h	{ v4, v5 }, [x10]
     2ac: 4e67b446     	sqdmulh.8h	v6, v2, v7
     2b0: 4e67b467     	sqdmulh.8h	v7, v3, v7
     2b4: fd40081c     	ldr	d28, [x0, #16]
     2b8: 4e648444     	add.8h	v4, v2, v4
     2bc: 4e658465     	add.8h	v5, v3, v5
     2c0: 4e6484c4     	add.8h	v4, v6, v4
     2c4: 4e6584e5     	add.8h	v5, v7, v5
     2c8: 4e0e079e     	dup.8h	v30, v28[3]
     2cc: 3d8007e4     	str	q4, [sp, #16]
     2d0: 3d800be5     	str	q5, [sp, #32]
     2d4: 6e643fc2     	cmhs.8h	v2, v30, v4
     2d8: 6e653fc3     	cmhs.8h	v3, v30, v5
     2dc: 4e638446     	add.8h	v6, v2, v3
     2e0: 4e71b8df     	addv.8h	h31, v6
     2e4: b9402004     	ldr	w4, [x0, #32]
     2e8: 0e022fef     	smov.h	w15, v31[0]
     2ec: 34000264     	cbz	w4, 0x338 <msac_decode_symbol_adapt16_neon+0xc4>
     2f0: 78627823     	ldrh	w3, [x1, x2, lsl #1]
     2f4: 12800084     	mov	w4, #-5
     2f8: 6e628410     	sub.8h	v16, v0, v2
     2fc: 6e638431     	sub.8h	v17, v1, v3
     300: 4f04b402     	orr.8h	v2, #128, lsl #8
     304: 4f04b403     	orr.8h	v3, #128, lsl #8
     308: 4b431084     	sub	w4, w4, w3, lsr #4
     30c: 6e608442     	sub.8h	v2, v2, v0
     310: 6e618463     	sub.8h	v3, v3, v1
     314: 4e020c86     	dup.8h	v6, w4
     318: 4b431463     	sub	w3, w3, w3, lsr #5
     31c: 4e664442     	sshl.8h	v2, v2, v6
     320: 4e664463     	sshl.8h	v3, v3, v6
     324: 11000463     	add	w3, w3, #1
     328: 4e628600     	add.8h	v0, v16, v2
     32c: 4e638621     	add.8h	v1, v17, v3
     330: 4c00a420     	st1.8h	{ v0, v1 }, [x1]
     334: 78227823     	strh	w3, [x1, x2, lsl #1]
     338: 8b2fc7e8     	add	x8, sp, w15, sxtw #1
     33c: 79406103     	ldrh	w3, [x8, #48]
     340: 7842e104     	ldurh	w4, [x8, #46]
     344: b9401c06     	ldr	w6, [x0, #28]
     348: f9400807     	ldr	x7, [x0, #16]
     34c: 4b030084     	sub	w4, w4, w3
     350: 5ac01085     	clz	w5, w4
     354: 521c00a5     	eor	w5, w5, #0x10
     358: cb03c0e7     	sub	x7, x7, x3, lsl #48
     35c: 1ac52084     	lsl	w4, w4, w5
     360: 6b0500c6     	subs	w6, w6, w5
     364: 9ac520e7     	lsl	x7, x7, x5
     368: b9001804     	str	w4, [x0, #24]
     36c: 9100c3ff     	add	sp, sp, #48
     370: 540000a3     	b.lo	0x384 <msac_decode_symbol_adapt16_neon+0x110>
     374: b9001c06     	str	w6, [x0, #28]
     378: f9000807     	str	x7, [x0, #16]
     37c: 110041e0     	add	w0, w15, #16
     380: d65f03c0     	ret
     384: 110041ef     	add	w15, w15, #16
     388: 17ffff5a     	b	0xf0 <msac_decode_symbol_adapt4_neon+0xf0>

000000000000038c <msac_decode_hi_tok_neon>:
     38c: 0c407420     	ld1.4h	{ v0 }, [x1]
     390: 91006010     	add	x16, x0, #24
     394: 0f03a7ff     	movi.4h	v31, #127, lsl #8
     398: 90000011     	adrp	x17, 0x0 <msac_decode_hi_tok_neon+0xc>
     39c: 91000231     	add	x17, x17, #0
     3a0: 2f0187fe     	mvni.4h	v30, #63
     3a4: 79400c29     	ldrh	w9, [x1, #6]
     3a8: 0d40c603     	ld1r.4h	{ v3 }, [x16]
     3ac: 0c40763d     	ld1.4h	{ v29 }, [x17]
     3b0: 91005811     	add	x17, x0, #22
     3b4: 128017ed     	mov	w13, #-192
     3b8: 0e3e1c11     	and.8b	v17, v0, v30
     3bc: b940200a     	ldr	w10, [x0, #32]
     3c0: 4d40c621     	ld1r.8h	{ v1 }, [x17]
     3c4: b9401c06     	ldr	w6, [x0, #28]
     3c8: f9400807     	ldr	x7, [x0, #16]
     3cc: 0e3f1c67     	and.8b	v7, v3, v31
     3d0: 0e67b626     	sqdmulh.4h	v6, v17, v7
     3d4: 0e7d8624     	add.4h	v4, v17, v29
     3d8: 0e6484c4     	add.4h	v4, v6, v4
     3dc: 2e643c22     	cmhs.4h	v2, v1, v4
     3e0: 1100a1ad     	add	w13, w13, #40
     3e4: 2e043072     	ext.8b	v18, v3, v4, #6
     3e8: 4e083c4f     	mov.d	x15, v2[0]
     3ec: dac00def     	rev	x15, x15
     3f0: 2e648652     	sub.4h	v18, v18, v4
     3f4: dac011ef     	clz	x15, x15
     3f8: 340001ca     	cbz	w10, 0x430 <msac_decode_hi_tok_neon+0xa4>
     3fc: 2e628405     	sub.4h	v5, v0, v2
     400: 12800084     	mov	w4, #-5
     404: 0f04b402     	orr.4h	v2, #128, lsl #8
     408: 4b491084     	sub	w4, w4, w9, lsr #4
     40c: 2e608442     	sub.4h	v2, v2, v0
     410: 0e020c86     	dup.4h	v6, w4
     414: 4b491529     	sub	w9, w9, w9, lsr #5
     418: 0e664442     	sshl.4h	v2, v2, v6
     41c: 11000529     	add	w9, w9, #1
     420: 0e6284a0     	add.4h	v0, v5, v2
     424: 0c007420     	st1.4h	{ v0 }, [x1]
     428: 0e3e1c11     	and.8b	v17, v0, v30
     42c: 79000c29     	strh	w9, [x1, #6]
     430: 4e083e44     	mov.d	x4, v18[0]
     434: 4e083c83     	mov.d	x3, v4[0]
     438: 9acf2484     	lsr	x4, x4, x15
     43c: 9acf2463     	lsr	x3, x3, x15
     440: 53103c85     	lsl	w5, w4, #16
     444: cb03c0e7     	sub	x7, x7, x3, lsl #48
     448: 5ac010a5     	clz	w5, w5
     44c: 1ac52084     	lsl	w4, w4, w5
     450: 6b0500c6     	subs	w6, w6, w5
     454: 9ac520e7     	lsl	x7, x7, x5
     458: 79003004     	strh	w4, [x0, #24]
     45c: 0e020c83     	dup.4h	v3, w4
     460: 54000202     	b.hs	0x4a0 <msac_decode_hi_tok_neon+0x114>
     464: a9401003     	ldp	x3, x4, [x0]
     468: 91002065     	add	x5, x3, #8
     46c: eb0400a5     	subs	x5, x5, x4
     470: 54000328     	b.hi	0x4d4 <msac_decode_hi_tok_neon+0x148>
     474: f9400068     	ldr	x8, [x3]
     478: 5100c0c4     	sub	w4, w6, #48
     47c: aa2803e8     	mvn	x8, x8
     480: 4b0403e5     	neg	w5, w4
     484: dac00d08     	rev	x8, x8
     488: 53037ca5     	lsr	w5, w5, #3
     48c: 9ac42508     	lsr	x8, x8, x4
     490: 8b050063     	add	x3, x3, x5
     494: 0b050cc6     	add	w6, w6, w5, lsl #3
     498: f9000003     	str	x3, [x0]
     49c: aa0800e7     	orr	x7, x7, x8
     4a0: 5100a1ef     	sub	w15, w15, #40
     4a4: d370fcec     	lsr	x12, x7, #48
     4a8: 2b0f01ad     	adds	w13, w13, w15
     4ac: 4e020d81     	dup.8h	v1, w12
     4b0: 54fff8e3     	b.lo	0x3cc <msac_decode_hi_tok_neon+0x40>
     4b4: 1103c1ad     	add	w13, w13, #240
     4b8: b9001c06     	str	w6, [x0, #28]
     4bc: f9000807     	str	x7, [x0, #16]
     4c0: 53047da0     	lsr	w0, w13, #4
     4c4: d65f03c0     	ret
     4c8: 510040c8     	sub	w8, w6, #16
     4cc: 9ac82d08     	ror	x8, x8, x8
     4d0: 17fffff3     	b	0x49c <msac_decode_hi_tok_neon+0x110>
     4d4: eb04007f     	cmp	x3, x4
     4d8: 54ffff82     	b.hs	0x4c8 <msac_decode_hi_tok_neon+0x13c>
     4dc: f85f8088     	ldur	x8, [x4, #-8]
     4e0: 531d70a5     	lsl	w5, w5, #3
     4e4: 9ac52508     	lsr	x8, x8, x5
     4e8: 5100c0c5     	sub	w5, w6, #48
     4ec: aa2803e8     	mvn	x8, x8
     4f0: 4b030084     	sub	w4, w4, w3
     4f4: dac00d08     	rev	x8, x8
     4f8: 9ac52508     	lsr	x8, x8, x5
     4fc: 4b0503e5     	neg	w5, w5
     500: 53037ca5     	lsr	w5, w5, #3
     504: 6b0400bf     	cmp	w5, w4
     508: 1a8430a5     	csel	w5, w5, w4, lo
     50c: 17ffffe1     	b	0x490 <msac_decode_hi_tok_neon+0x104>

0000000000000510 <msac_decode_bool_equi_neon>:
     510: 29431805     	ldp	w5, w6, [x0, #24]
     514: f9400807     	ldr	x7, [x0, #16]
     518: 12185ca4     	and	w4, w5, #0xffffff00
     51c: 11002084     	add	w4, w4, #8
     520: eb04bce8     	subs	x8, x7, x4, lsl #47
     524: 53017c84     	lsr	w4, w4, #1
     528: 4b0400a5     	sub	w5, w5, w4
     52c: 1a9f27ef     	cset	w15, lo
     530: 1a8420a4     	csel	w4, w5, w4, hs
     534: 9a872107     	csel	x7, x8, x7, hs
     538: 5ac01085     	clz	w5, w4
     53c: 521c00a5     	eor	w5, w5, #0x10
     540: 1ac52084     	lsl	w4, w4, w5
     544: 6b0500c6     	subs	w6, w6, w5
     548: 9ac520e7     	lsl	x7, x7, x5
     54c: b9001804     	str	w4, [x0, #24]
     550: 54ffdd03     	b.lo	0xf0 <msac_decode_symbol_adapt4_neon+0xf0>
     554: b9001c06     	str	w6, [x0, #28]
     558: f9000807     	str	x7, [x0, #16]
     55c: 2a0f03e0     	mov	w0, w15
     560: d65f03c0     	ret

0000000000000564 <msac_decode_bool_neon>:
     564: 29431805     	ldp	w5, w6, [x0, #24]
     568: f9400807     	ldr	x7, [x0, #16]
     56c: 53087ca4     	lsr	w4, w5, #8
     570: 121a6421     	and	w1, w1, #0xffffffc0
     574: 1b017c84     	mul	w4, w4, w1
     578: 53077c84     	lsr	w4, w4, #7
     57c: 11001084     	add	w4, w4, #4
     580: eb04c0e8     	subs	x8, x7, x4, lsl #48
     584: 4b0400a5     	sub	w5, w5, w4
     588: 1a9f27ef     	cset	w15, lo
     58c: 1a8420a4     	csel	w4, w5, w4, hs
     590: 9a872107     	csel	x7, x8, x7, hs
     594: 5ac01085     	clz	w5, w4
     598: 521c00a5     	eor	w5, w5, #0x10
     59c: 1ac52084     	lsl	w4, w4, w5
     5a0: 6b0500c6     	subs	w6, w6, w5
     5a4: 9ac520e7     	lsl	x7, x7, x5
     5a8: b9001804     	str	w4, [x0, #24]
     5ac: 54ffda23     	b.lo	0xf0 <msac_decode_symbol_adapt4_neon+0xf0>
     5b0: b9001c06     	str	w6, [x0, #28]
     5b4: f9000807     	str	x7, [x0, #16]
     5b8: 2a0f03e0     	mov	w0, w15
     5bc: d65f03c0     	ret

00000000000005c0 <msac_decode_bool_adapt_neon>:
     5c0: b9400029     	ldr	w9, [x1]
     5c4: 29431805     	ldp	w5, w6, [x0, #24]
     5c8: f9400807     	ldr	x7, [x0, #16]
     5cc: 53087ca4     	lsr	w4, w5, #8
     5d0: 121a2522     	and	w2, w9, #0xffc0
     5d4: 1b027c84     	mul	w4, w4, w2
     5d8: 53077c84     	lsr	w4, w4, #7
     5dc: 11001084     	add	w4, w4, #4
     5e0: eb04c0e8     	subs	x8, x7, x4, lsl #48
     5e4: 4b0400a5     	sub	w5, w5, w4
     5e8: 1a9f27ef     	cset	w15, lo
     5ec: 1a8420a4     	csel	w4, w5, w4, hs
     5f0: 9a872107     	csel	x7, x8, x7, hs
     5f4: b940200a     	ldr	w10, [x0, #32]
     5f8: 5ac01085     	clz	w5, w4
     5fc: 521c00a5     	eor	w5, w5, #0x10
     600: 340001aa     	cbz	w10, 0x634 <msac_decode_bool_adapt_neon+0x74>
     604: 53107d22     	lsr	w2, w9, #16
     608: 12003d29     	and	w9, w9, #0xffff
     60c: 4b421443     	sub	w3, w2, w2, lsr #5
     610: 53047c42     	lsr	w2, w2, #4
     614: 1100046a     	add	w10, w3, #1
     618: 11001042     	add	w2, w2, #4
     61c: 4b0f0129     	sub	w9, w9, w15
     620: 4b0f3d2b     	sub	w11, w9, w15, lsl #15
     624: 1ac2296b     	asr	w11, w11, w2
     628: 4b0b0129     	sub	w9, w9, w11
     62c: 79000029     	strh	w9, [x1]
     630: 7900042a     	strh	w10, [x1, #2]
     634: 1ac52084     	lsl	w4, w4, w5
     638: 6b0500c6     	subs	w6, w6, w5
     63c: 9ac520e7     	lsl	x7, x7, x5
     640: b9001804     	str	w4, [x0, #24]
     644: 54ffd563     	b.lo	0xf0 <msac_decode_symbol_adapt4_neon+0xf0>
     648: b9001c06     	str	w6, [x0, #28]
     64c: f9000807     	str	x7, [x0, #16]
     650: 2a0f03e0     	mov	w0, w15
     654: d65f03c0     	ret
