
object-files/ca81b3637afdb6b5-cdef16.o:	file format mach-o arm64

Disassembly of section __TEXT,__text:

0000000000000000 <ltmp0>:
       0: 4f04a41e     	movi.8h	v30, #128, lsl #8
       4: 4ebe1fdf     	mov.16b	v31, v30
       8: d1011000     	sub	x0, x0, #68
       c: 721e00ff     	tst	w7, #0x4
      10: 54000081     	b.ne	0x20 <ltmp0+0x20>
      14: 4c9fa41e     	st1.8h	{ v30, v31 }, [x0], #32
      18: 4c9fa41e     	st1.8h	{ v30, v31 }, [x0], #32
      1c: 14000039     	b	0x100 <ltmp0+0x100>
      20: 8b020089     	add	x9, x4, x2
      24: 720000ff     	tst	w7, #0x1
      28: 540003a0     	b.eq	0x9c <ltmp0+0x9c>
      2c: d1001084     	sub	x4, x4, #4
      30: d1001129     	sub	x9, x9, #4
      34: 721f00ff     	tst	w7, #0x2
      38: 54000180     	b.eq	0x68 <ltmp0+0x68>
      3c: 3dc00080     	ldr	q0, [x4]
      40: fd400881     	ldr	d1, [x4, #16]
      44: 3dc00122     	ldr	q2, [x9]
      48: fd400923     	ldr	d3, [x9, #16]
      4c: 3d800000     	str	q0, [x0]
      50: fd000801     	str	d1, [x0, #16]
      54: 91008000     	add	x0, x0, #32
      58: 3d800002     	str	q2, [x0]
      5c: fd000803     	str	d3, [x0, #16]
      60: 91008000     	add	x0, x0, #32
      64: 14000027     	b	0x100 <ltmp0+0x100>
      68: 3dc00080     	ldr	q0, [x4]
      6c: bd401081     	ldr	s1, [x4, #16]
      70: 3dc00122     	ldr	q2, [x9]
      74: bd401123     	ldr	s3, [x9, #16]
      78: 3d800000     	str	q0, [x0]
      7c: bd001001     	str	s1, [x0, #16]
      80: bd00141f     	str	s31, [x0, #20]
      84: 91008000     	add	x0, x0, #32
      88: 3d800002     	str	q2, [x0]
      8c: bd001003     	str	s3, [x0, #16]
      90: bd00141f     	str	s31, [x0, #20]
      94: 91008000     	add	x0, x0, #32
      98: 1400001a     	b	0x100 <ltmp0+0x100>
      9c: 721f00ff     	tst	w7, #0x2
      a0: 540001c0     	b.eq	0xd8 <ltmp0+0xd8>
      a4: 3dc00080     	ldr	q0, [x4]
      a8: bd401081     	ldr	s1, [x4, #16]
      ac: 3dc00122     	ldr	q2, [x9]
      b0: bd401123     	ldr	s3, [x9, #16]
      b4: bd00001f     	str	s31, [x0]
      b8: 3c804000     	stur	q0, [x0, #4]
      bc: bd001401     	str	s1, [x0, #20]
      c0: 91008000     	add	x0, x0, #32
      c4: bd00001f     	str	s31, [x0]
      c8: 3c804002     	stur	q2, [x0, #4]
      cc: bd001403     	str	s3, [x0, #20]
      d0: 91008000     	add	x0, x0, #32
      d4: 1400000b     	b	0x100 <ltmp0+0x100>
      d8: 3dc00080     	ldr	q0, [x4]
      dc: 3dc00121     	ldr	q1, [x9]
      e0: bd00001f     	str	s31, [x0]
      e4: 3c804000     	stur	q0, [x0, #4]
      e8: bd00141f     	str	s31, [x0, #20]
      ec: 91008000     	add	x0, x0, #32
      f0: bd00001f     	str	s31, [x0]
      f4: 3c804001     	stur	q1, [x0, #4]
      f8: bd00141f     	str	s31, [x0, #20]
      fc: 91008000     	add	x0, x0, #32
     100: 720000ff     	tst	w7, #0x1
     104: 540002c0     	b.eq	0x15c <ltmp0+0x15c>
     108: 721f00ff     	tst	w7, #0x2
     10c: 54000160     	b.eq	0x138 <ltmp0+0x138>
     110: 0ddf8060     	ld1.s	{ v0 }[0], [x3], #4
     114: bd401022     	ldr	s2, [x1, #16]
     118: 4cc27421     	ld1.8h	{ v1 }, [x1], x2
     11c: 710004c6     	subs	w6, w6, #1
     120: bd000000     	str	s0, [x0]
     124: 3c804001     	stur	q1, [x0, #4]
     128: bd001402     	str	s2, [x0, #20]
     12c: 91008000     	add	x0, x0, #32
     130: 54ffff0c     	b.gt	0x110 <ltmp0+0x110>
     134: 1400001c     	b	0x1a4 <ltmp0+0x1a4>
     138: 0ddf8060     	ld1.s	{ v0 }[0], [x3], #4
     13c: 4cc27421     	ld1.8h	{ v1 }, [x1], x2
     140: 710004c6     	subs	w6, w6, #1
     144: bd000000     	str	s0, [x0]
     148: 3c804001     	stur	q1, [x0, #4]
     14c: bd00141f     	str	s31, [x0, #20]
     150: 91008000     	add	x0, x0, #32
     154: 54ffff2c     	b.gt	0x138 <ltmp0+0x138>
     158: 14000013     	b	0x1a4 <ltmp0+0x1a4>
     15c: 721f00ff     	tst	w7, #0x2
     160: 54000140     	b.eq	0x188 <ltmp0+0x188>
     164: bd401021     	ldr	s1, [x1, #16]
     168: 4cc27420     	ld1.8h	{ v0 }, [x1], x2
     16c: 710004c6     	subs	w6, w6, #1
     170: bd00001f     	str	s31, [x0]
     174: 3c804000     	stur	q0, [x0, #4]
     178: bd001401     	str	s1, [x0, #20]
     17c: 91008000     	add	x0, x0, #32
     180: 54ffff2c     	b.gt	0x164 <ltmp0+0x164>
     184: 14000008     	b	0x1a4 <ltmp0+0x1a4>
     188: 4cc27420     	ld1.8h	{ v0 }, [x1], x2
     18c: 710004c6     	subs	w6, w6, #1
     190: bd00001f     	str	s31, [x0]
     194: 3c804000     	stur	q0, [x0, #4]
     198: bd00141f     	str	s31, [x0, #20]
     19c: 91008000     	add	x0, x0, #32
     1a0: 54ffff4c     	b.gt	0x188 <ltmp0+0x188>
     1a4: 721d00ff     	tst	w7, #0x8
     1a8: 54000081     	b.ne	0x1b8 <ltmp0+0x1b8>
     1ac: 4c9fa41e     	st1.8h	{ v30, v31 }, [x0], #32
     1b0: 4c9fa41e     	st1.8h	{ v30, v31 }, [x0], #32
     1b4: d65f03c0     	ret
     1b8: 8b0200a9     	add	x9, x5, x2
     1bc: 720000ff     	tst	w7, #0x1
     1c0: 54000360     	b.eq	0x22c <ltmp0+0x22c>
     1c4: d10010a5     	sub	x5, x5, #4
     1c8: d1001129     	sub	x9, x9, #4
     1cc: 721f00ff     	tst	w7, #0x2
     1d0: 54000160     	b.eq	0x1fc <ltmp0+0x1fc>
     1d4: 3dc000a0     	ldr	q0, [x5]
     1d8: fd4008a1     	ldr	d1, [x5, #16]
     1dc: 3dc00122     	ldr	q2, [x9]
     1e0: fd400923     	ldr	d3, [x9, #16]
     1e4: 3d800000     	str	q0, [x0]
     1e8: fd000801     	str	d1, [x0, #16]
     1ec: 91008000     	add	x0, x0, #32
     1f0: 3d800002     	str	q2, [x0]
     1f4: fd000803     	str	d3, [x0, #16]
     1f8: d65f03c0     	ret
     1fc: 3dc000a0     	ldr	q0, [x5]
     200: bd4010a1     	ldr	s1, [x5, #16]
     204: 3dc00122     	ldr	q2, [x9]
     208: bd401123     	ldr	s3, [x9, #16]
     20c: 3d800000     	str	q0, [x0]
     210: bd001001     	str	s1, [x0, #16]
     214: bd00141f     	str	s31, [x0, #20]
     218: 91008000     	add	x0, x0, #32
     21c: 3d800002     	str	q2, [x0]
     220: bd001003     	str	s3, [x0, #16]
     224: bd00141f     	str	s31, [x0, #20]
     228: d65f03c0     	ret
     22c: 721f00ff     	tst	w7, #0x2
     230: 540001a0     	b.eq	0x264 <ltmp0+0x264>
     234: 3dc000a0     	ldr	q0, [x5]
     238: bd4010a1     	ldr	s1, [x5, #16]
     23c: 3dc00122     	ldr	q2, [x9]
     240: bd401123     	ldr	s3, [x9, #16]
     244: bd00001f     	str	s31, [x0]
     248: 3c804000     	stur	q0, [x0, #4]
     24c: bd001401     	str	s1, [x0, #20]
     250: 91008000     	add	x0, x0, #32
     254: bd00001f     	str	s31, [x0]
     258: 3c804002     	stur	q2, [x0, #4]
     25c: bd001403     	str	s3, [x0, #20]
     260: d65f03c0     	ret
     264: 3dc000a0     	ldr	q0, [x5]
     268: 3dc00121     	ldr	q1, [x9]
     26c: bd00001f     	str	s31, [x0]
     270: 3c804000     	stur	q0, [x0, #4]
     274: bd00141f     	str	s31, [x0, #20]
     278: 91008000     	add	x0, x0, #32
     27c: bd00001f     	str	s31, [x0]
     280: 3c804001     	stur	q1, [x0, #4]
     284: bd00141f     	str	s31, [x0, #20]
     288: d65f03c0     	ret

000000000000028c <cdef_padding4_16bpc_neon>:
     28c: 4f04a41e     	movi.8h	v30, #128, lsl #8
     290: 4ebe1fdf     	mov.16b	v31, v30
     294: d1009000     	sub	x0, x0, #36
     298: 721e00ff     	tst	w7, #0x4
     29c: 54000061     	b.ne	0x2a8 <cdef_padding4_16bpc_neon+0x1c>
     2a0: 4c9fa41e     	st1.8h	{ v30, v31 }, [x0], #32
     2a4: 14000039     	b	0x388 <cdef_padding4_16bpc_neon+0xfc>
     2a8: 8b020089     	add	x9, x4, x2
     2ac: 720000ff     	tst	w7, #0x1
     2b0: 540003a0     	b.eq	0x324 <cdef_padding4_16bpc_neon+0x98>
     2b4: d1001084     	sub	x4, x4, #4
     2b8: d1001129     	sub	x9, x9, #4
     2bc: 721f00ff     	tst	w7, #0x2
     2c0: 54000180     	b.eq	0x2f0 <cdef_padding4_16bpc_neon+0x64>
     2c4: fd400080     	ldr	d0, [x4]
     2c8: fd400481     	ldr	d1, [x4, #8]
     2cc: fd400122     	ldr	d2, [x9]
     2d0: fd400523     	ldr	d3, [x9, #8]
     2d4: fd000000     	str	d0, [x0]
     2d8: fd000401     	str	d1, [x0, #8]
     2dc: 91004000     	add	x0, x0, #16
     2e0: fd000002     	str	d2, [x0]
     2e4: fd000403     	str	d3, [x0, #8]
     2e8: 91004000     	add	x0, x0, #16
     2ec: 14000027     	b	0x388 <cdef_padding4_16bpc_neon+0xfc>
     2f0: fd400080     	ldr	d0, [x4]
     2f4: bd400881     	ldr	s1, [x4, #8]
     2f8: fd400122     	ldr	d2, [x9]
     2fc: bd400923     	ldr	s3, [x9, #8]
     300: fd000000     	str	d0, [x0]
     304: bd000801     	str	s1, [x0, #8]
     308: bd000c1f     	str	s31, [x0, #12]
     30c: 91004000     	add	x0, x0, #16
     310: fd000002     	str	d2, [x0]
     314: bd000803     	str	s3, [x0, #8]
     318: bd000c1f     	str	s31, [x0, #12]
     31c: 91004000     	add	x0, x0, #16
     320: 1400001a     	b	0x388 <cdef_padding4_16bpc_neon+0xfc>
     324: 721f00ff     	tst	w7, #0x2
     328: 540001c0     	b.eq	0x360 <cdef_padding4_16bpc_neon+0xd4>
     32c: fd400080     	ldr	d0, [x4]
     330: bd400881     	ldr	s1, [x4, #8]
     334: fd400122     	ldr	d2, [x9]
     338: bd400923     	ldr	s3, [x9, #8]
     33c: bd00001f     	str	s31, [x0]
     340: fc004000     	stur	d0, [x0, #4]
     344: bd000c01     	str	s1, [x0, #12]
     348: 91004000     	add	x0, x0, #16
     34c: bd00001f     	str	s31, [x0]
     350: fc004002     	stur	d2, [x0, #4]
     354: bd000c03     	str	s3, [x0, #12]
     358: 91004000     	add	x0, x0, #16
     35c: 1400000b     	b	0x388 <cdef_padding4_16bpc_neon+0xfc>
     360: fd400080     	ldr	d0, [x4]
     364: fd400121     	ldr	d1, [x9]
     368: bd00001f     	str	s31, [x0]
     36c: fc004000     	stur	d0, [x0, #4]
     370: bd000c1f     	str	s31, [x0, #12]
     374: 91004000     	add	x0, x0, #16
     378: bd00001f     	str	s31, [x0]
     37c: fc004001     	stur	d1, [x0, #4]
     380: bd000c1f     	str	s31, [x0, #12]
     384: 91004000     	add	x0, x0, #16
     388: 720000ff     	tst	w7, #0x1
     38c: 540002c0     	b.eq	0x3e4 <cdef_padding4_16bpc_neon+0x158>
     390: 721f00ff     	tst	w7, #0x2
     394: 54000160     	b.eq	0x3c0 <cdef_padding4_16bpc_neon+0x134>
     398: 0ddf8060     	ld1.s	{ v0 }[0], [x3], #4
     39c: bd400822     	ldr	s2, [x1, #8]
     3a0: 0cc27421     	ld1.4h	{ v1 }, [x1], x2
     3a4: 710004c6     	subs	w6, w6, #1
     3a8: bd000000     	str	s0, [x0]
     3ac: fc004001     	stur	d1, [x0, #4]
     3b0: bd000c02     	str	s2, [x0, #12]
     3b4: 91004000     	add	x0, x0, #16
     3b8: 54ffff0c     	b.gt	0x398 <cdef_padding4_16bpc_neon+0x10c>
     3bc: 1400001c     	b	0x42c <cdef_padding4_16bpc_neon+0x1a0>
     3c0: 0ddf8060     	ld1.s	{ v0 }[0], [x3], #4
     3c4: 0cc27421     	ld1.4h	{ v1 }, [x1], x2
     3c8: 710004c6     	subs	w6, w6, #1
     3cc: bd000000     	str	s0, [x0]
     3d0: fc004001     	stur	d1, [x0, #4]
     3d4: bd000c1f     	str	s31, [x0, #12]
     3d8: 91004000     	add	x0, x0, #16
     3dc: 54ffff2c     	b.gt	0x3c0 <cdef_padding4_16bpc_neon+0x134>
     3e0: 14000013     	b	0x42c <cdef_padding4_16bpc_neon+0x1a0>
     3e4: 721f00ff     	tst	w7, #0x2
     3e8: 54000140     	b.eq	0x410 <cdef_padding4_16bpc_neon+0x184>
     3ec: bd400821     	ldr	s1, [x1, #8]
     3f0: 0cc27420     	ld1.4h	{ v0 }, [x1], x2
     3f4: 710004c6     	subs	w6, w6, #1
     3f8: bd00001f     	str	s31, [x0]
     3fc: fc004000     	stur	d0, [x0, #4]
     400: bd000c01     	str	s1, [x0, #12]
     404: 91004000     	add	x0, x0, #16
     408: 54ffff2c     	b.gt	0x3ec <cdef_padding4_16bpc_neon+0x160>
     40c: 14000008     	b	0x42c <cdef_padding4_16bpc_neon+0x1a0>
     410: 0cc27420     	ld1.4h	{ v0 }, [x1], x2
     414: 710004c6     	subs	w6, w6, #1
     418: bd00001f     	str	s31, [x0]
     41c: fc004000     	stur	d0, [x0, #4]
     420: bd000c1f     	str	s31, [x0, #12]
     424: 91004000     	add	x0, x0, #16
     428: 54ffff4c     	b.gt	0x410 <cdef_padding4_16bpc_neon+0x184>
     42c: 721d00ff     	tst	w7, #0x8
     430: 54000061     	b.ne	0x43c <cdef_padding4_16bpc_neon+0x1b0>
     434: 4c9fa41e     	st1.8h	{ v30, v31 }, [x0], #32
     438: d65f03c0     	ret
     43c: 8b0200a9     	add	x9, x5, x2
     440: 720000ff     	tst	w7, #0x1
     444: 54000360     	b.eq	0x4b0 <cdef_padding4_16bpc_neon+0x224>
     448: d10010a5     	sub	x5, x5, #4
     44c: d1001129     	sub	x9, x9, #4
     450: 721f00ff     	tst	w7, #0x2
     454: 54000160     	b.eq	0x480 <cdef_padding4_16bpc_neon+0x1f4>
     458: fd4000a0     	ldr	d0, [x5]
     45c: fd4004a1     	ldr	d1, [x5, #8]
     460: fd400122     	ldr	d2, [x9]
     464: fd400523     	ldr	d3, [x9, #8]
     468: fd000000     	str	d0, [x0]
     46c: fd000401     	str	d1, [x0, #8]
     470: 91004000     	add	x0, x0, #16
     474: fd000002     	str	d2, [x0]
     478: fd000403     	str	d3, [x0, #8]
     47c: d65f03c0     	ret
     480: fd4000a0     	ldr	d0, [x5]
     484: bd4008a1     	ldr	s1, [x5, #8]
     488: fd400122     	ldr	d2, [x9]
     48c: bd400923     	ldr	s3, [x9, #8]
     490: fd000000     	str	d0, [x0]
     494: bd000801     	str	s1, [x0, #8]
     498: bd000c1f     	str	s31, [x0, #12]
     49c: 91004000     	add	x0, x0, #16
     4a0: fd000002     	str	d2, [x0]
     4a4: bd000803     	str	s3, [x0, #8]
     4a8: bd000c1f     	str	s31, [x0, #12]
     4ac: d65f03c0     	ret
     4b0: 721f00ff     	tst	w7, #0x2
     4b4: 540001a0     	b.eq	0x4e8 <cdef_padding4_16bpc_neon+0x25c>
     4b8: fd4000a0     	ldr	d0, [x5]
     4bc: bd4008a1     	ldr	s1, [x5, #8]
     4c0: fd400122     	ldr	d2, [x9]
     4c4: bd400923     	ldr	s3, [x9, #8]
     4c8: bd00001f     	str	s31, [x0]
     4cc: fc004000     	stur	d0, [x0, #4]
     4d0: bd000c01     	str	s1, [x0, #12]
     4d4: 91004000     	add	x0, x0, #16
     4d8: bd00001f     	str	s31, [x0]
     4dc: fc004002     	stur	d2, [x0, #4]
     4e0: bd000c03     	str	s3, [x0, #12]
     4e4: d65f03c0     	ret
     4e8: fd4000a0     	ldr	d0, [x5]
     4ec: fd400121     	ldr	d1, [x9]
     4f0: bd00001f     	str	s31, [x0]
     4f4: fc004000     	stur	d0, [x0, #4]
     4f8: bd000c1f     	str	s31, [x0, #12]
     4fc: 91004000     	add	x0, x0, #16
     500: bd00001f     	str	s31, [x0]
     504: fc004001     	stur	d1, [x0, #4]
     508: bd000c1f     	str	s31, [x0, #12]
     50c: d65f03c0     	ret

0000000000000510 <cdef_filter8_pri_16bpc_neon>:
     510: b9400be9     	ldr	w9, [sp, #8]
     514: 5ac01129     	clz	w9, w9
     518: 51006129     	sub	w9, w9, #24
     51c: 4b0903e9     	neg	w9, w9
     520: 90000008     	adrp	x8, 0x0 <cdef_filter8_pri_16bpc_neon+0x10>
     524: 91000108     	add	x8, x8, #0
     528: 1ac92469     	lsr	w9, w3, w9
     52c: 12000129     	and	w9, w9, #0x1
     530: 8b294508     	add	x8, x8, w9, uxtw #1
     534: 90000009     	adrp	x9, 0x0 <cdef_filter8_pri_16bpc_neon+0x24>
     538: 91000129     	add	x9, x9, #0
     53c: 8b254525     	add	x5, x9, w5, uxtw #1
     540: 0f0085fe     	movi.4h	v30, #15
     544: 0e020cdc     	dup.4h	v28, w6
     548: 4e020c79     	dup.8h	v25, w3
     54c: 0e5b2b38     	trn1.4h	v24, v25, v27
     550: 2e604b18     	clz.4h	v24, v24
     554: 2e7887d8     	sub.4h	v24, v30, v24
     558: 2e782f98     	uqsub.4h	v24, v28, v24
     55c: 2e60bb18     	neg.4h	v24, v24
     560: 4e020718     	dup.8h	v24, v24[0]
     564: 4c407440     	ld1.8h	{ v0 }, [x2]
     568: 4f008401     	movi.8h	v1, #0
     56c: 5280004b     	mov	w11, #2
     570: 394000a9     	ldrb	w9, [x5]
     574: 8b298446     	add	x6, x2, w9, sxtb #1
     578: cb298449     	sub	x9, x2, w9, sxtb #1
     57c: 4c4074c4     	ld1.8h	{ v4 }, [x6]
     580: 4c407525     	ld1.8h	{ v5 }, [x9]
     584: 3940010a     	ldrb	w10, [x8]
     588: 6e647410     	uabd.8h	v16, v0, v4
     58c: 6e657414     	uabd.8h	v20, v0, v5
     590: 6e784611     	ushl.8h	v17, v16, v24
     594: 6e784695     	ushl.8h	v21, v20, v24
     598: 6e712f31     	uqsub.8h	v17, v25, v17
     59c: 6e752f35     	uqsub.8h	v21, v25, v21
     5a0: 6e608492     	sub.8h	v18, v4, v0
     5a4: 6e6084b6     	sub.8h	v22, v5, v0
     5a8: 6e60ba30     	neg.8h	v16, v17
     5ac: 6e60bab4     	neg.8h	v20, v21
     5b0: 4e716e52     	smin.8h	v18, v18, v17
     5b4: 4e756ed6     	smin.8h	v22, v22, v21
     5b8: 4e020d53     	dup.8h	v19, w10
     5bc: 4e706652     	smax.8h	v18, v18, v16
     5c0: 4e7466d6     	smax.8h	v22, v22, v20
     5c4: 4e739641     	mla.8h	v1, v18, v19
     5c8: 4e7396c1     	mla.8h	v1, v22, v19
     5cc: 910004a5     	add	x5, x5, #1
     5d0: 7100056b     	subs	w11, w11, #1
     5d4: 91000508     	add	x8, x8, #1
     5d8: 54fffcc1     	b.ne	0x570 <cdef_filter8_pri_16bpc_neon+0x60>
     5dc: 4e60a824     	cmlt.8h	v4, v1, #0
     5e0: 4e648421     	add.8h	v1, v1, v4
     5e4: 4f1c2421     	srshr.8h	v1, v1, #4
     5e8: 4e618400     	add.8h	v0, v0, v1
     5ec: 91008042     	add	x2, x2, #32
     5f0: 710004e7     	subs	w7, w7, #1
     5f4: 4c817400     	st1.8h	{ v0 }, [x0], x1
     5f8: d10008a5     	sub	x5, x5, #2
     5fc: d1000908     	sub	x8, x8, #2
     600: 54fffb2c     	b.gt	0x564 <cdef_filter8_pri_16bpc_neon+0x54>
     604: d65f03c0     	ret

0000000000000608 <cdef_filter8_sec_16bpc_neon>:
     608: 90000009     	adrp	x9, 0x0 <cdef_filter8_sec_16bpc_neon>
     60c: 91000129     	add	x9, x9, #0
     610: 8b254525     	add	x5, x9, w5, uxtw #1
     614: 0f0085fe     	movi.4h	v30, #15
     618: 0e020cdc     	dup.4h	v28, w6
     61c: 4e020c9b     	dup.8h	v27, w4
     620: 0e5b2b38     	trn1.4h	v24, v25, v27
     624: 2e604b18     	clz.4h	v24, v24
     628: 2e7887d8     	sub.4h	v24, v30, v24
     62c: 2e782f98     	uqsub.4h	v24, v28, v24
     630: 2e60bb18     	neg.4h	v24, v24
     634: 4e06071a     	dup.8h	v26, v24[1]
     638: 4c407440     	ld1.8h	{ v0 }, [x2]
     63c: 4f008401     	movi.8h	v1, #0
     640: 5280004b     	mov	w11, #2
     644: 910010a5     	add	x5, x5, #4
     648: 394000a9     	ldrb	w9, [x5]
     64c: 8b298446     	add	x6, x2, w9, sxtb #1
     650: cb298449     	sub	x9, x2, w9, sxtb #1
     654: 4c4074c6     	ld1.8h	{ v6 }, [x6]
     658: 4c407527     	ld1.8h	{ v7 }, [x9]
     65c: 910020a5     	add	x5, x5, #8
     660: 394000a9     	ldrb	w9, [x5]
     664: 8b298446     	add	x6, x2, w9, sxtb #1
     668: cb298449     	sub	x9, x2, w9, sxtb #1
     66c: 4c4074c4     	ld1.8h	{ v4 }, [x6]
     670: 4c407525     	ld1.8h	{ v5 }, [x9]
     674: 6e667410     	uabd.8h	v16, v0, v6
     678: 6e677414     	uabd.8h	v20, v0, v7
     67c: 6e7a4611     	ushl.8h	v17, v16, v26
     680: 6e7a4695     	ushl.8h	v21, v20, v26
     684: 6e712f71     	uqsub.8h	v17, v27, v17
     688: 6e752f75     	uqsub.8h	v21, v27, v21
     68c: 6e6084d2     	sub.8h	v18, v6, v0
     690: 6e6084f6     	sub.8h	v22, v7, v0
     694: 6e60ba30     	neg.8h	v16, v17
     698: 6e60bab4     	neg.8h	v20, v21
     69c: 4e716e52     	smin.8h	v18, v18, v17
     6a0: 4e756ed6     	smin.8h	v22, v22, v21
     6a4: 4e020d73     	dup.8h	v19, w11
     6a8: 4e706652     	smax.8h	v18, v18, v16
     6ac: 4e7466d6     	smax.8h	v22, v22, v20
     6b0: 4e739641     	mla.8h	v1, v18, v19
     6b4: 4e7396c1     	mla.8h	v1, v22, v19
     6b8: 6e647410     	uabd.8h	v16, v0, v4
     6bc: 6e657414     	uabd.8h	v20, v0, v5
     6c0: 6e7a4611     	ushl.8h	v17, v16, v26
     6c4: 6e7a4695     	ushl.8h	v21, v20, v26
     6c8: 6e712f71     	uqsub.8h	v17, v27, v17
     6cc: 6e752f75     	uqsub.8h	v21, v27, v21
     6d0: 6e608492     	sub.8h	v18, v4, v0
     6d4: 6e6084b6     	sub.8h	v22, v5, v0
     6d8: 6e60ba30     	neg.8h	v16, v17
     6dc: 6e60bab4     	neg.8h	v20, v21
     6e0: 4e716e52     	smin.8h	v18, v18, v17
     6e4: 4e756ed6     	smin.8h	v22, v22, v21
     6e8: 4e020d73     	dup.8h	v19, w11
     6ec: 4e706652     	smax.8h	v18, v18, v16
     6f0: 4e7466d6     	smax.8h	v22, v22, v20
     6f4: 4e739641     	mla.8h	v1, v18, v19
     6f8: 4e7396c1     	mla.8h	v1, v22, v19
     6fc: d1002ca5     	sub	x5, x5, #11
     700: 7100056b     	subs	w11, w11, #1
     704: 54fffa01     	b.ne	0x644 <cdef_filter8_sec_16bpc_neon+0x3c>
     708: 4e60a824     	cmlt.8h	v4, v1, #0
     70c: 4e648421     	add.8h	v1, v1, v4
     710: 4f1c2421     	srshr.8h	v1, v1, #4
     714: 4e618400     	add.8h	v0, v0, v1
     718: 91008042     	add	x2, x2, #32
     71c: 710004e7     	subs	w7, w7, #1
     720: 4c817400     	st1.8h	{ v0 }, [x0], x1
     724: d10008a5     	sub	x5, x5, #2
     728: 54fff88c     	b.gt	0x638 <cdef_filter8_sec_16bpc_neon+0x30>
     72c: d65f03c0     	ret

0000000000000730 <cdef_filter8_pri_sec_16bpc_neon>:
     730: b9400be9     	ldr	w9, [sp, #8]
     734: 5ac01129     	clz	w9, w9
     738: 51006129     	sub	w9, w9, #24
     73c: 4b0903e9     	neg	w9, w9
     740: 90000008     	adrp	x8, 0x0 <cdef_filter8_pri_sec_16bpc_neon+0x10>
     744: 91000108     	add	x8, x8, #0
     748: 1ac92469     	lsr	w9, w3, w9
     74c: 12000129     	and	w9, w9, #0x1
     750: 8b294508     	add	x8, x8, w9, uxtw #1
     754: 90000009     	adrp	x9, 0x0 <cdef_filter8_pri_sec_16bpc_neon+0x24>
     758: 91000129     	add	x9, x9, #0
     75c: 8b254525     	add	x5, x9, w5, uxtw #1
     760: 0f0085fe     	movi.4h	v30, #15
     764: 0e020cdc     	dup.4h	v28, w6
     768: 4e020c79     	dup.8h	v25, w3
     76c: 4e020c9b     	dup.8h	v27, w4
     770: 0e5b2b38     	trn1.4h	v24, v25, v27
     774: 2e604b18     	clz.4h	v24, v24
     778: 2e7887d8     	sub.4h	v24, v30, v24
     77c: 2e782f98     	uqsub.4h	v24, v28, v24
     780: 2e60bb18     	neg.4h	v24, v24
     784: 4e06071a     	dup.8h	v26, v24[1]
     788: 4e020718     	dup.8h	v24, v24[0]
     78c: 4c407440     	ld1.8h	{ v0 }, [x2]
     790: 4f008401     	movi.8h	v1, #0
     794: 4ea01c02     	mov.16b	v2, v0
     798: 4ea01c03     	mov.16b	v3, v0
     79c: 5280004b     	mov	w11, #2
     7a0: 394000a9     	ldrb	w9, [x5]
     7a4: 8b298446     	add	x6, x2, w9, sxtb #1
     7a8: cb298449     	sub	x9, x2, w9, sxtb #1
     7ac: 4c4074c4     	ld1.8h	{ v4 }, [x6]
     7b0: 4c407525     	ld1.8h	{ v5 }, [x9]
     7b4: 910010a5     	add	x5, x5, #4
     7b8: 394000a9     	ldrb	w9, [x5]
     7bc: 8b298446     	add	x6, x2, w9, sxtb #1
     7c0: cb298449     	sub	x9, x2, w9, sxtb #1
     7c4: 4c4074c6     	ld1.8h	{ v6 }, [x6]
     7c8: 4c407527     	ld1.8h	{ v7 }, [x9]
     7cc: 3940010a     	ldrb	w10, [x8]
     7d0: 6e646c42     	umin.8h	v2, v2, v4
     7d4: 4e646463     	smax.8h	v3, v3, v4
     7d8: 6e656c42     	umin.8h	v2, v2, v5
     7dc: 4e656463     	smax.8h	v3, v3, v5
     7e0: 6e647410     	uabd.8h	v16, v0, v4
     7e4: 6e657414     	uabd.8h	v20, v0, v5
     7e8: 6e784611     	ushl.8h	v17, v16, v24
     7ec: 6e784695     	ushl.8h	v21, v20, v24
     7f0: 6e712f31     	uqsub.8h	v17, v25, v17
     7f4: 6e752f35     	uqsub.8h	v21, v25, v21
     7f8: 6e608492     	sub.8h	v18, v4, v0
     7fc: 6e6084b6     	sub.8h	v22, v5, v0
     800: 6e60ba30     	neg.8h	v16, v17
     804: 6e60bab4     	neg.8h	v20, v21
     808: 4e716e52     	smin.8h	v18, v18, v17
     80c: 4e756ed6     	smin.8h	v22, v22, v21
     810: 4e020d53     	dup.8h	v19, w10
     814: 4e706652     	smax.8h	v18, v18, v16
     818: 4e7466d6     	smax.8h	v22, v22, v20
     81c: 4e739641     	mla.8h	v1, v18, v19
     820: 4e7396c1     	mla.8h	v1, v22, v19
     824: 910020a5     	add	x5, x5, #8
     828: 394000a9     	ldrb	w9, [x5]
     82c: 8b298446     	add	x6, x2, w9, sxtb #1
     830: cb298449     	sub	x9, x2, w9, sxtb #1
     834: 4c4074c4     	ld1.8h	{ v4 }, [x6]
     838: 4c407525     	ld1.8h	{ v5 }, [x9]
     83c: 6e666c42     	umin.8h	v2, v2, v6
     840: 4e666463     	smax.8h	v3, v3, v6
     844: 6e676c42     	umin.8h	v2, v2, v7
     848: 4e676463     	smax.8h	v3, v3, v7
     84c: 6e667410     	uabd.8h	v16, v0, v6
     850: 6e677414     	uabd.8h	v20, v0, v7
     854: 6e7a4611     	ushl.8h	v17, v16, v26
     858: 6e7a4695     	ushl.8h	v21, v20, v26
     85c: 6e712f71     	uqsub.8h	v17, v27, v17
     860: 6e752f75     	uqsub.8h	v21, v27, v21
     864: 6e6084d2     	sub.8h	v18, v6, v0
     868: 6e6084f6     	sub.8h	v22, v7, v0
     86c: 6e60ba30     	neg.8h	v16, v17
     870: 6e60bab4     	neg.8h	v20, v21
     874: 4e716e52     	smin.8h	v18, v18, v17
     878: 4e756ed6     	smin.8h	v22, v22, v21
     87c: 4e020d73     	dup.8h	v19, w11
     880: 4e706652     	smax.8h	v18, v18, v16
     884: 4e7466d6     	smax.8h	v22, v22, v20
     888: 4e739641     	mla.8h	v1, v18, v19
     88c: 4e7396c1     	mla.8h	v1, v22, v19
     890: 6e646c42     	umin.8h	v2, v2, v4
     894: 4e646463     	smax.8h	v3, v3, v4
     898: 6e656c42     	umin.8h	v2, v2, v5
     89c: 4e656463     	smax.8h	v3, v3, v5
     8a0: 6e647410     	uabd.8h	v16, v0, v4
     8a4: 6e657414     	uabd.8h	v20, v0, v5
     8a8: 6e7a4611     	ushl.8h	v17, v16, v26
     8ac: 6e7a4695     	ushl.8h	v21, v20, v26
     8b0: 6e712f71     	uqsub.8h	v17, v27, v17
     8b4: 6e752f75     	uqsub.8h	v21, v27, v21
     8b8: 6e608492     	sub.8h	v18, v4, v0
     8bc: 6e6084b6     	sub.8h	v22, v5, v0
     8c0: 6e60ba30     	neg.8h	v16, v17
     8c4: 6e60bab4     	neg.8h	v20, v21
     8c8: 4e716e52     	smin.8h	v18, v18, v17
     8cc: 4e756ed6     	smin.8h	v22, v22, v21
     8d0: 4e020d73     	dup.8h	v19, w11
     8d4: 4e706652     	smax.8h	v18, v18, v16
     8d8: 4e7466d6     	smax.8h	v22, v22, v20
     8dc: 4e739641     	mla.8h	v1, v18, v19
     8e0: 4e7396c1     	mla.8h	v1, v22, v19
     8e4: d1002ca5     	sub	x5, x5, #11
     8e8: 7100056b     	subs	w11, w11, #1
     8ec: 91000508     	add	x8, x8, #1
     8f0: 54fff581     	b.ne	0x7a0 <cdef_filter8_pri_sec_16bpc_neon+0x70>
     8f4: 4e60a824     	cmlt.8h	v4, v1, #0
     8f8: 4e648421     	add.8h	v1, v1, v4
     8fc: 4f1c2421     	srshr.8h	v1, v1, #4
     900: 4e618400     	add.8h	v0, v0, v1
     904: 4e636c00     	smin.8h	v0, v0, v3
     908: 4e626400     	smax.8h	v0, v0, v2
     90c: 91008042     	add	x2, x2, #32
     910: 710004e7     	subs	w7, w7, #1
     914: 4c817400     	st1.8h	{ v0 }, [x0], x1
     918: d10008a5     	sub	x5, x5, #2
     91c: d1000908     	sub	x8, x8, #2
     920: 54fff36c     	b.gt	0x78c <cdef_filter8_pri_sec_16bpc_neon+0x5c>
     924: d65f03c0     	ret

0000000000000928 <cdef_filter8_16bpc_neon>:
     928: 35000043     	cbnz	w3, 0x930 <cdef_filter8_16bpc_neon+0x8>
     92c: 17ffff37     	b	0x608 <cdef_filter8_sec_16bpc_neon>
     930: 35000044     	cbnz	w4, 0x938 <cdef_filter8_16bpc_neon+0x10>
     934: 17fffef7     	b	0x510 <cdef_filter8_pri_16bpc_neon>
     938: 17ffff7e     	b	0x730 <cdef_filter8_pri_sec_16bpc_neon>

000000000000093c <cdef_filter4_pri_16bpc_neon>:
     93c: b9400be9     	ldr	w9, [sp, #8]
     940: 5ac01129     	clz	w9, w9
     944: 51006129     	sub	w9, w9, #24
     948: 4b0903e9     	neg	w9, w9
     94c: 90000008     	adrp	x8, 0x0 <cdef_filter4_pri_16bpc_neon+0x10>
     950: 91000108     	add	x8, x8, #0
     954: 1ac92469     	lsr	w9, w3, w9
     958: 12000129     	and	w9, w9, #0x1
     95c: 8b294508     	add	x8, x8, w9, uxtw #1
     960: 90000009     	adrp	x9, 0x0 <cdef_filter4_pri_16bpc_neon+0x24>
     964: 91000129     	add	x9, x9, #0
     968: 8b254525     	add	x5, x9, w5, uxtw #1
     96c: 0f0085fe     	movi.4h	v30, #15
     970: 0e020cdc     	dup.4h	v28, w6
     974: 4e020c79     	dup.8h	v25, w3
     978: 0e5b2b38     	trn1.4h	v24, v25, v27
     97c: 2e604b18     	clz.4h	v24, v24
     980: 2e7887d8     	sub.4h	v24, v30, v24
     984: 2e782f98     	uqsub.4h	v24, v28, v24
     988: 2e60bb18     	neg.4h	v24, v24
     98c: 4e020718     	dup.8h	v24, v24[0]
     990: 9100404c     	add	x12, x2, #16
     994: 0c407440     	ld1.4h	{ v0 }, [x2]
     998: 4d408580     	ld1.d	{ v0 }[1], [x12]
     99c: 4f008401     	movi.8h	v1, #0
     9a0: 5280004b     	mov	w11, #2
     9a4: 394000a9     	ldrb	w9, [x5]
     9a8: 8b298446     	add	x6, x2, w9, sxtb #1
     9ac: cb298449     	sub	x9, x2, w9, sxtb #1
     9b0: 0c4074c4     	ld1.4h	{ v4 }, [x6]
     9b4: 910040c6     	add	x6, x6, #16
     9b8: 0c407525     	ld1.4h	{ v5 }, [x9]
     9bc: 91004129     	add	x9, x9, #16
     9c0: 4d4084c4     	ld1.d	{ v4 }[1], [x6]
     9c4: 4d408525     	ld1.d	{ v5 }[1], [x9]
     9c8: 3940010a     	ldrb	w10, [x8]
     9cc: 6e647410     	uabd.8h	v16, v0, v4
     9d0: 6e657414     	uabd.8h	v20, v0, v5
     9d4: 6e784611     	ushl.8h	v17, v16, v24
     9d8: 6e784695     	ushl.8h	v21, v20, v24
     9dc: 6e712f31     	uqsub.8h	v17, v25, v17
     9e0: 6e752f35     	uqsub.8h	v21, v25, v21
     9e4: 6e608492     	sub.8h	v18, v4, v0
     9e8: 6e6084b6     	sub.8h	v22, v5, v0
     9ec: 6e60ba30     	neg.8h	v16, v17
     9f0: 6e60bab4     	neg.8h	v20, v21
     9f4: 4e716e52     	smin.8h	v18, v18, v17
     9f8: 4e756ed6     	smin.8h	v22, v22, v21
     9fc: 4e020d53     	dup.8h	v19, w10
     a00: 4e706652     	smax.8h	v18, v18, v16
     a04: 4e7466d6     	smax.8h	v22, v22, v20
     a08: 4e739641     	mla.8h	v1, v18, v19
     a0c: 4e7396c1     	mla.8h	v1, v22, v19
     a10: 910004a5     	add	x5, x5, #1
     a14: 7100056b     	subs	w11, w11, #1
     a18: 91000508     	add	x8, x8, #1
     a1c: 54fffc41     	b.ne	0x9a4 <cdef_filter4_pri_16bpc_neon+0x68>
     a20: 4e60a824     	cmlt.8h	v4, v1, #0
     a24: 4e648421     	add.8h	v1, v1, v4
     a28: 4f1c2421     	srshr.8h	v1, v1, #4
     a2c: 4e618400     	add.8h	v0, v0, v1
     a30: 0d818400     	st1.d	{ v0 }[0], [x0], x1
     a34: 91008042     	add	x2, x2, #32
     a38: 710008e7     	subs	w7, w7, #2
     a3c: 4d818400     	st1.d	{ v0 }[1], [x0], x1
     a40: d10008a5     	sub	x5, x5, #2
     a44: d1000908     	sub	x8, x8, #2
     a48: 54fffa4c     	b.gt	0x990 <cdef_filter4_pri_16bpc_neon+0x54>
     a4c: d65f03c0     	ret

0000000000000a50 <cdef_filter4_sec_16bpc_neon>:
     a50: 90000009     	adrp	x9, 0x0 <cdef_filter4_sec_16bpc_neon>
     a54: 91000129     	add	x9, x9, #0
     a58: 8b254525     	add	x5, x9, w5, uxtw #1
     a5c: 0f0085fe     	movi.4h	v30, #15
     a60: 0e020cdc     	dup.4h	v28, w6
     a64: 4e020c9b     	dup.8h	v27, w4
     a68: 0e5b2b38     	trn1.4h	v24, v25, v27
     a6c: 2e604b18     	clz.4h	v24, v24
     a70: 2e7887d8     	sub.4h	v24, v30, v24
     a74: 2e782f98     	uqsub.4h	v24, v28, v24
     a78: 2e60bb18     	neg.4h	v24, v24
     a7c: 4e06071a     	dup.8h	v26, v24[1]
     a80: 9100404c     	add	x12, x2, #16
     a84: 0c407440     	ld1.4h	{ v0 }, [x2]
     a88: 4d408580     	ld1.d	{ v0 }[1], [x12]
     a8c: 4f008401     	movi.8h	v1, #0
     a90: 5280004b     	mov	w11, #2
     a94: 910010a5     	add	x5, x5, #4
     a98: 394000a9     	ldrb	w9, [x5]
     a9c: 8b298446     	add	x6, x2, w9, sxtb #1
     aa0: cb298449     	sub	x9, x2, w9, sxtb #1
     aa4: 0c4074c6     	ld1.4h	{ v6 }, [x6]
     aa8: 910040c6     	add	x6, x6, #16
     aac: 0c407527     	ld1.4h	{ v7 }, [x9]
     ab0: 91004129     	add	x9, x9, #16
     ab4: 4d4084c6     	ld1.d	{ v6 }[1], [x6]
     ab8: 4d408527     	ld1.d	{ v7 }[1], [x9]
     abc: 910020a5     	add	x5, x5, #8
     ac0: 394000a9     	ldrb	w9, [x5]
     ac4: 8b298446     	add	x6, x2, w9, sxtb #1
     ac8: cb298449     	sub	x9, x2, w9, sxtb #1
     acc: 0c4074c4     	ld1.4h	{ v4 }, [x6]
     ad0: 910040c6     	add	x6, x6, #16
     ad4: 0c407525     	ld1.4h	{ v5 }, [x9]
     ad8: 91004129     	add	x9, x9, #16
     adc: 4d4084c4     	ld1.d	{ v4 }[1], [x6]
     ae0: 4d408525     	ld1.d	{ v5 }[1], [x9]
     ae4: 6e667410     	uabd.8h	v16, v0, v6
     ae8: 6e677414     	uabd.8h	v20, v0, v7
     aec: 6e7a4611     	ushl.8h	v17, v16, v26
     af0: 6e7a4695     	ushl.8h	v21, v20, v26
     af4: 6e712f71     	uqsub.8h	v17, v27, v17
     af8: 6e752f75     	uqsub.8h	v21, v27, v21
     afc: 6e6084d2     	sub.8h	v18, v6, v0
     b00: 6e6084f6     	sub.8h	v22, v7, v0
     b04: 6e60ba30     	neg.8h	v16, v17
     b08: 6e60bab4     	neg.8h	v20, v21
     b0c: 4e716e52     	smin.8h	v18, v18, v17
     b10: 4e756ed6     	smin.8h	v22, v22, v21
     b14: 4e020d73     	dup.8h	v19, w11
     b18: 4e706652     	smax.8h	v18, v18, v16
     b1c: 4e7466d6     	smax.8h	v22, v22, v20
     b20: 4e739641     	mla.8h	v1, v18, v19
     b24: 4e7396c1     	mla.8h	v1, v22, v19
     b28: 6e647410     	uabd.8h	v16, v0, v4
     b2c: 6e657414     	uabd.8h	v20, v0, v5
     b30: 6e7a4611     	ushl.8h	v17, v16, v26
     b34: 6e7a4695     	ushl.8h	v21, v20, v26
     b38: 6e712f71     	uqsub.8h	v17, v27, v17
     b3c: 6e752f75     	uqsub.8h	v21, v27, v21
     b40: 6e608492     	sub.8h	v18, v4, v0
     b44: 6e6084b6     	sub.8h	v22, v5, v0
     b48: 6e60ba30     	neg.8h	v16, v17
     b4c: 6e60bab4     	neg.8h	v20, v21
     b50: 4e716e52     	smin.8h	v18, v18, v17
     b54: 4e756ed6     	smin.8h	v22, v22, v21
     b58: 4e020d73     	dup.8h	v19, w11
     b5c: 4e706652     	smax.8h	v18, v18, v16
     b60: 4e7466d6     	smax.8h	v22, v22, v20
     b64: 4e739641     	mla.8h	v1, v18, v19
     b68: 4e7396c1     	mla.8h	v1, v22, v19
     b6c: d1002ca5     	sub	x5, x5, #11
     b70: 7100056b     	subs	w11, w11, #1
     b74: 54fff901     	b.ne	0xa94 <cdef_filter4_sec_16bpc_neon+0x44>
     b78: 4e60a824     	cmlt.8h	v4, v1, #0
     b7c: 4e648421     	add.8h	v1, v1, v4
     b80: 4f1c2421     	srshr.8h	v1, v1, #4
     b84: 4e618400     	add.8h	v0, v0, v1
     b88: 0d818400     	st1.d	{ v0 }[0], [x0], x1
     b8c: 91008042     	add	x2, x2, #32
     b90: 710008e7     	subs	w7, w7, #2
     b94: 4d818400     	st1.d	{ v0 }[1], [x0], x1
     b98: d10008a5     	sub	x5, x5, #2
     b9c: 54fff72c     	b.gt	0xa80 <cdef_filter4_sec_16bpc_neon+0x30>
     ba0: d65f03c0     	ret

0000000000000ba4 <cdef_filter4_pri_sec_16bpc_neon>:
     ba4: b9400be9     	ldr	w9, [sp, #8]
     ba8: 5ac01129     	clz	w9, w9
     bac: 51006129     	sub	w9, w9, #24
     bb0: 4b0903e9     	neg	w9, w9
     bb4: 90000008     	adrp	x8, 0x0 <cdef_filter4_pri_sec_16bpc_neon+0x10>
     bb8: 91000108     	add	x8, x8, #0
     bbc: 1ac92469     	lsr	w9, w3, w9
     bc0: 12000129     	and	w9, w9, #0x1
     bc4: 8b294508     	add	x8, x8, w9, uxtw #1
     bc8: 90000009     	adrp	x9, 0x0 <cdef_filter4_pri_sec_16bpc_neon+0x24>
     bcc: 91000129     	add	x9, x9, #0
     bd0: 8b254525     	add	x5, x9, w5, uxtw #1
     bd4: 0f0085fe     	movi.4h	v30, #15
     bd8: 0e020cdc     	dup.4h	v28, w6
     bdc: 4e020c79     	dup.8h	v25, w3
     be0: 4e020c9b     	dup.8h	v27, w4
     be4: 0e5b2b38     	trn1.4h	v24, v25, v27
     be8: 2e604b18     	clz.4h	v24, v24
     bec: 2e7887d8     	sub.4h	v24, v30, v24
     bf0: 2e782f98     	uqsub.4h	v24, v28, v24
     bf4: 2e60bb18     	neg.4h	v24, v24
     bf8: 4e06071a     	dup.8h	v26, v24[1]
     bfc: 4e020718     	dup.8h	v24, v24[0]
     c00: 9100404c     	add	x12, x2, #16
     c04: 0c407440     	ld1.4h	{ v0 }, [x2]
     c08: 4d408580     	ld1.d	{ v0 }[1], [x12]
     c0c: 4f008401     	movi.8h	v1, #0
     c10: 4ea01c02     	mov.16b	v2, v0
     c14: 4ea01c03     	mov.16b	v3, v0
     c18: 5280004b     	mov	w11, #2
     c1c: 394000a9     	ldrb	w9, [x5]
     c20: 8b298446     	add	x6, x2, w9, sxtb #1
     c24: cb298449     	sub	x9, x2, w9, sxtb #1
     c28: 0c4074c4     	ld1.4h	{ v4 }, [x6]
     c2c: 910040c6     	add	x6, x6, #16
     c30: 0c407525     	ld1.4h	{ v5 }, [x9]
     c34: 91004129     	add	x9, x9, #16
     c38: 4d4084c4     	ld1.d	{ v4 }[1], [x6]
     c3c: 4d408525     	ld1.d	{ v5 }[1], [x9]
     c40: 910010a5     	add	x5, x5, #4
     c44: 394000a9     	ldrb	w9, [x5]
     c48: 8b298446     	add	x6, x2, w9, sxtb #1
     c4c: cb298449     	sub	x9, x2, w9, sxtb #1
     c50: 0c4074c6     	ld1.4h	{ v6 }, [x6]
     c54: 910040c6     	add	x6, x6, #16
     c58: 0c407527     	ld1.4h	{ v7 }, [x9]
     c5c: 91004129     	add	x9, x9, #16
     c60: 4d4084c6     	ld1.d	{ v6 }[1], [x6]
     c64: 4d408527     	ld1.d	{ v7 }[1], [x9]
     c68: 3940010a     	ldrb	w10, [x8]
     c6c: 6e646c42     	umin.8h	v2, v2, v4
     c70: 4e646463     	smax.8h	v3, v3, v4
     c74: 6e656c42     	umin.8h	v2, v2, v5
     c78: 4e656463     	smax.8h	v3, v3, v5
     c7c: 6e647410     	uabd.8h	v16, v0, v4
     c80: 6e657414     	uabd.8h	v20, v0, v5
     c84: 6e784611     	ushl.8h	v17, v16, v24
     c88: 6e784695     	ushl.8h	v21, v20, v24
     c8c: 6e712f31     	uqsub.8h	v17, v25, v17
     c90: 6e752f35     	uqsub.8h	v21, v25, v21
     c94: 6e608492     	sub.8h	v18, v4, v0
     c98: 6e6084b6     	sub.8h	v22, v5, v0
     c9c: 6e60ba30     	neg.8h	v16, v17
     ca0: 6e60bab4     	neg.8h	v20, v21
     ca4: 4e716e52     	smin.8h	v18, v18, v17
     ca8: 4e756ed6     	smin.8h	v22, v22, v21
     cac: 4e020d53     	dup.8h	v19, w10
     cb0: 4e706652     	smax.8h	v18, v18, v16
     cb4: 4e7466d6     	smax.8h	v22, v22, v20
     cb8: 4e739641     	mla.8h	v1, v18, v19
     cbc: 4e7396c1     	mla.8h	v1, v22, v19
     cc0: 910020a5     	add	x5, x5, #8
     cc4: 394000a9     	ldrb	w9, [x5]
     cc8: 8b298446     	add	x6, x2, w9, sxtb #1
     ccc: cb298449     	sub	x9, x2, w9, sxtb #1
     cd0: 0c4074c4     	ld1.4h	{ v4 }, [x6]
     cd4: 910040c6     	add	x6, x6, #16
     cd8: 0c407525     	ld1.4h	{ v5 }, [x9]
     cdc: 91004129     	add	x9, x9, #16
     ce0: 4d4084c4     	ld1.d	{ v4 }[1], [x6]
     ce4: 4d408525     	ld1.d	{ v5 }[1], [x9]
     ce8: 6e666c42     	umin.8h	v2, v2, v6
     cec: 4e666463     	smax.8h	v3, v3, v6
     cf0: 6e676c42     	umin.8h	v2, v2, v7
     cf4: 4e676463     	smax.8h	v3, v3, v7
     cf8: 6e667410     	uabd.8h	v16, v0, v6
     cfc: 6e677414     	uabd.8h	v20, v0, v7
     d00: 6e7a4611     	ushl.8h	v17, v16, v26
     d04: 6e7a4695     	ushl.8h	v21, v20, v26
     d08: 6e712f71     	uqsub.8h	v17, v27, v17
     d0c: 6e752f75     	uqsub.8h	v21, v27, v21
     d10: 6e6084d2     	sub.8h	v18, v6, v0
     d14: 6e6084f6     	sub.8h	v22, v7, v0
     d18: 6e60ba30     	neg.8h	v16, v17
     d1c: 6e60bab4     	neg.8h	v20, v21
     d20: 4e716e52     	smin.8h	v18, v18, v17
     d24: 4e756ed6     	smin.8h	v22, v22, v21
     d28: 4e020d73     	dup.8h	v19, w11
     d2c: 4e706652     	smax.8h	v18, v18, v16
     d30: 4e7466d6     	smax.8h	v22, v22, v20
     d34: 4e739641     	mla.8h	v1, v18, v19
     d38: 4e7396c1     	mla.8h	v1, v22, v19
     d3c: 6e646c42     	umin.8h	v2, v2, v4
     d40: 4e646463     	smax.8h	v3, v3, v4
     d44: 6e656c42     	umin.8h	v2, v2, v5
     d48: 4e656463     	smax.8h	v3, v3, v5
     d4c: 6e647410     	uabd.8h	v16, v0, v4
     d50: 6e657414     	uabd.8h	v20, v0, v5
     d54: 6e7a4611     	ushl.8h	v17, v16, v26
     d58: 6e7a4695     	ushl.8h	v21, v20, v26
     d5c: 6e712f71     	uqsub.8h	v17, v27, v17
     d60: 6e752f75     	uqsub.8h	v21, v27, v21
     d64: 6e608492     	sub.8h	v18, v4, v0
     d68: 6e6084b6     	sub.8h	v22, v5, v0
     d6c: 6e60ba30     	neg.8h	v16, v17
     d70: 6e60bab4     	neg.8h	v20, v21
     d74: 4e716e52     	smin.8h	v18, v18, v17
     d78: 4e756ed6     	smin.8h	v22, v22, v21
     d7c: 4e020d73     	dup.8h	v19, w11
     d80: 4e706652     	smax.8h	v18, v18, v16
     d84: 4e7466d6     	smax.8h	v22, v22, v20
     d88: 4e739641     	mla.8h	v1, v18, v19
     d8c: 4e7396c1     	mla.8h	v1, v22, v19
     d90: d1002ca5     	sub	x5, x5, #11
     d94: 7100056b     	subs	w11, w11, #1
     d98: 91000508     	add	x8, x8, #1
     d9c: 54fff401     	b.ne	0xc1c <cdef_filter4_pri_sec_16bpc_neon+0x78>
     da0: 4e60a824     	cmlt.8h	v4, v1, #0
     da4: 4e648421     	add.8h	v1, v1, v4
     da8: 4f1c2421     	srshr.8h	v1, v1, #4
     dac: 4e618400     	add.8h	v0, v0, v1
     db0: 4e636c00     	smin.8h	v0, v0, v3
     db4: 4e626400     	smax.8h	v0, v0, v2
     db8: 0d818400     	st1.d	{ v0 }[0], [x0], x1
     dbc: 91008042     	add	x2, x2, #32
     dc0: 710008e7     	subs	w7, w7, #2
     dc4: 4d818400     	st1.d	{ v0 }[1], [x0], x1
     dc8: d10008a5     	sub	x5, x5, #2
     dcc: d1000908     	sub	x8, x8, #2
     dd0: 54fff18c     	b.gt	0xc00 <cdef_filter4_pri_sec_16bpc_neon+0x5c>
     dd4: d65f03c0     	ret

0000000000000dd8 <cdef_filter4_16bpc_neon>:
     dd8: 35000043     	cbnz	w3, 0xde0 <cdef_filter4_16bpc_neon+0x8>
     ddc: 17ffff1d     	b	0xa50 <cdef_filter4_sec_16bpc_neon>
     de0: 35000044     	cbnz	w4, 0xde8 <cdef_filter4_16bpc_neon+0x10>
     de4: 17fffed6     	b	0x93c <cdef_filter4_pri_16bpc_neon>
     de8: 17ffff6f     	b	0xba4 <cdef_filter4_pri_sec_16bpc_neon>

0000000000000dec <cdef_find_dir_16bpc_neon>:
     dec: fc1f0fe8     	str	d8, [sp, #-16]!
     df0: 5ac01063     	clz	w3, w3
     df4: 51006063     	sub	w3, w3, #24
     df8: 4e020c68     	dup.8h	v8, w3
     dfc: d10083ff     	sub	sp, sp, #32
     e00: 52800103     	mov	w3, #8
     e04: 4f04841f     	movi.8h	v31, #128
     e08: 4f00e41e     	movi.16b	v30, #0
     e0c: 4f008401     	movi.8h	v1, #0
     e10: 4f008403     	movi.8h	v3, #0
     e14: 4f008405     	movi.8h	v5, #0
     e18: 4f008407     	movi.8h	v7, #0
     e1c: 4cc1741a     	ld1.8h	{ v26 }, [x0], x1
     e20: 4f008411     	movi.8h	v17, #0
     e24: 4f008412     	movi.8h	v18, #0
     e28: 6e68475a     	ushl.8h	v26, v26, v8
     e2c: 4f008413     	movi.8h	v19, #0
     e30: 6e7f875a     	sub.8h	v26, v26, v31
     e34: 4f008415     	movi.8h	v21, #0
     e38: 4e71bb59     	addv.8h	h25, v26
     e3c: 4e600b5b     	rev64.8h	v27, v26
     e40: 4e7ebf5c     	addp.8h	v28, v26, v30
     e44: 4e7a84a5     	add.8h	v5, v5, v26
     e48: 6e1b437b     	ext.16b	v27, v27, v27, #8
     e4c: 0e600b9d     	rev64.4h	v29, v28
     e50: 6e020724     	mov.h	v4[0], v25[0]
     e54: 6e1a53d6     	ext.16b	v22, v30, v26, #10
     e58: 6e1e5357     	ext.16b	v23, v26, v30, #10
     e5c: 4e768652     	add.8h	v18, v18, v22
     e60: 0e778673     	add.4h	v19, v19, v23
     e64: 4eba1f54     	mov.16b	v20, v26
     e68: 4eba1f40     	mov.16b	v0, v26
     e6c: 4cc1741a     	ld1.8h	{ v26 }, [x0], x1
     e70: 4ebb1f62     	mov.16b	v2, v27
     e74: 6e68475a     	ushl.8h	v26, v26, v8
     e78: 4ebc1f86     	mov.16b	v6, v28
     e7c: 6e7f875a     	sub.8h	v26, v26, v31
     e80: 4ebd1fb0     	mov.16b	v16, v29
     e84: 4e71bb59     	addv.8h	h25, v26
     e88: 4e600b5b     	rev64.8h	v27, v26
     e8c: 4e7ebf5c     	addp.8h	v28, v26, v30
     e90: 4e7a84a5     	add.8h	v5, v5, v26
     e94: 6e1b437b     	ext.16b	v27, v27, v27, #8
     e98: 0e600b9d     	rev64.4h	v29, v28
     e9c: 6e060724     	mov.h	v4[1], v25[0]
     ea0: 6e1a53d6     	ext.16b	v22, v30, v26, #10
     ea4: 6e1e5357     	ext.16b	v23, v26, v30, #10
     ea8: 4e768652     	add.8h	v18, v18, v22
     eac: 0e778673     	add.4h	v19, v19, v23
     eb0: 4e7a8694     	add.8h	v20, v20, v26
     eb4: 6e1a73d6     	ext.16b	v22, v30, v26, #14
     eb8: 6e1e7357     	ext.16b	v23, v26, v30, #14
     ebc: 6e1b73d8     	ext.16b	v24, v30, v27, #14
     ec0: 6e1e7379     	ext.16b	v25, v27, v30, #14
     ec4: 4cc1741a     	ld1.8h	{ v26 }, [x0], x1
     ec8: 4e768400     	add.8h	v0, v0, v22
     ecc: 4e778421     	add.8h	v1, v1, v23
     ed0: 4e788442     	add.8h	v2, v2, v24
     ed4: 4e798463     	add.8h	v3, v3, v25
     ed8: 6e68475a     	ushl.8h	v26, v26, v8
     edc: 6e1c73d6     	ext.16b	v22, v30, v28, #14
     ee0: 6e1e7397     	ext.16b	v23, v28, v30, #14
     ee4: 6e1d73d8     	ext.16b	v24, v30, v29, #14
     ee8: 6e1e73b9     	ext.16b	v25, v29, v30, #14
     eec: 6e7f875a     	sub.8h	v26, v26, v31
     ef0: 4e7684c6     	add.8h	v6, v6, v22
     ef4: 0e7784e7     	add.4h	v7, v7, v23
     ef8: 4e788610     	add.8h	v16, v16, v24
     efc: 0e798631     	add.4h	v17, v17, v25
     f00: 4e71bb59     	addv.8h	h25, v26
     f04: 4e600b5b     	rev64.8h	v27, v26
     f08: 4e7ebf5c     	addp.8h	v28, v26, v30
     f0c: 4e7a84a5     	add.8h	v5, v5, v26
     f10: 6e1b437b     	ext.16b	v27, v27, v27, #8
     f14: 0e600b9d     	rev64.4h	v29, v28
     f18: 6e0a0724     	mov.h	v4[2], v25[0]
     f1c: 6e1a63d6     	ext.16b	v22, v30, v26, #12
     f20: 6e1e6357     	ext.16b	v23, v26, v30, #12
     f24: 4e768652     	add.8h	v18, v18, v22
     f28: 0e778673     	add.4h	v19, v19, v23
     f2c: 6e1a73d8     	ext.16b	v24, v30, v26, #14
     f30: 6e1e7359     	ext.16b	v25, v26, v30, #14
     f34: 4e788694     	add.8h	v20, v20, v24
     f38: 0e7986b5     	add.4h	v21, v21, v25
     f3c: 6e1a63d6     	ext.16b	v22, v30, v26, #12
     f40: 6e1e6357     	ext.16b	v23, v26, v30, #12
     f44: 6e1b63d8     	ext.16b	v24, v30, v27, #12
     f48: 6e1e6379     	ext.16b	v25, v27, v30, #12
     f4c: 4cc1741a     	ld1.8h	{ v26 }, [x0], x1
     f50: 4e768400     	add.8h	v0, v0, v22
     f54: 4e778421     	add.8h	v1, v1, v23
     f58: 4e788442     	add.8h	v2, v2, v24
     f5c: 4e798463     	add.8h	v3, v3, v25
     f60: 6e68475a     	ushl.8h	v26, v26, v8
     f64: 6e1c63d6     	ext.16b	v22, v30, v28, #12
     f68: 6e1e6397     	ext.16b	v23, v28, v30, #12
     f6c: 6e1d63d8     	ext.16b	v24, v30, v29, #12
     f70: 6e1e63b9     	ext.16b	v25, v29, v30, #12
     f74: 6e7f875a     	sub.8h	v26, v26, v31
     f78: 4e7684c6     	add.8h	v6, v6, v22
     f7c: 0e7784e7     	add.4h	v7, v7, v23
     f80: 4e788610     	add.8h	v16, v16, v24
     f84: 0e798631     	add.4h	v17, v17, v25
     f88: 4e71bb59     	addv.8h	h25, v26
     f8c: 4e600b5b     	rev64.8h	v27, v26
     f90: 4e7ebf5c     	addp.8h	v28, v26, v30
     f94: 4e7a84a5     	add.8h	v5, v5, v26
     f98: 6e1b437b     	ext.16b	v27, v27, v27, #8
     f9c: 0e600b9d     	rev64.4h	v29, v28
     fa0: 6e0e0724     	mov.h	v4[3], v25[0]
     fa4: 6e1a63d6     	ext.16b	v22, v30, v26, #12
     fa8: 6e1e6357     	ext.16b	v23, v26, v30, #12
     fac: 4e768652     	add.8h	v18, v18, v22
     fb0: 0e778673     	add.4h	v19, v19, v23
     fb4: 6e1a73d8     	ext.16b	v24, v30, v26, #14
     fb8: 6e1e7359     	ext.16b	v25, v26, v30, #14
     fbc: 4e788694     	add.8h	v20, v20, v24
     fc0: 0e7986b5     	add.4h	v21, v21, v25
     fc4: 6e1a53d6     	ext.16b	v22, v30, v26, #10
     fc8: 6e1e5357     	ext.16b	v23, v26, v30, #10
     fcc: 6e1b53d8     	ext.16b	v24, v30, v27, #10
     fd0: 6e1e5379     	ext.16b	v25, v27, v30, #10
     fd4: 4cc1741a     	ld1.8h	{ v26 }, [x0], x1
     fd8: 4e768400     	add.8h	v0, v0, v22
     fdc: 4e778421     	add.8h	v1, v1, v23
     fe0: 4e788442     	add.8h	v2, v2, v24
     fe4: 4e798463     	add.8h	v3, v3, v25
     fe8: 6e68475a     	ushl.8h	v26, v26, v8
     fec: 6e1c53d6     	ext.16b	v22, v30, v28, #10
     ff0: 6e1e5397     	ext.16b	v23, v28, v30, #10
     ff4: 6e1d53d8     	ext.16b	v24, v30, v29, #10
     ff8: 6e1e53b9     	ext.16b	v25, v29, v30, #10
     ffc: 6e7f875a     	sub.8h	v26, v26, v31
    1000: 4e7684c6     	add.8h	v6, v6, v22
    1004: 0e7784e7     	add.4h	v7, v7, v23
    1008: 4e788610     	add.8h	v16, v16, v24
    100c: 0e798631     	add.4h	v17, v17, v25
    1010: 4e71bb59     	addv.8h	h25, v26
    1014: 4e600b5b     	rev64.8h	v27, v26
    1018: 4e7ebf5c     	addp.8h	v28, v26, v30
    101c: 4e7a84a5     	add.8h	v5, v5, v26
    1020: 6e1b437b     	ext.16b	v27, v27, v27, #8
    1024: 0e600b9d     	rev64.4h	v29, v28
    1028: 6e120724     	mov.h	v4[4], v25[0]
    102c: 6e1a73d6     	ext.16b	v22, v30, v26, #14
    1030: 6e1e7357     	ext.16b	v23, v26, v30, #14
    1034: 4e768652     	add.8h	v18, v18, v22
    1038: 0e778673     	add.4h	v19, v19, v23
    103c: 6e1a63d8     	ext.16b	v24, v30, v26, #12
    1040: 6e1e6359     	ext.16b	v25, v26, v30, #12
    1044: 4e788694     	add.8h	v20, v20, v24
    1048: 0e7986b5     	add.4h	v21, v21, v25
    104c: 6e1a43d6     	ext.16b	v22, v30, v26, #8
    1050: 6e1e4357     	ext.16b	v23, v26, v30, #8
    1054: 6e1b43d8     	ext.16b	v24, v30, v27, #8
    1058: 6e1e4379     	ext.16b	v25, v27, v30, #8
    105c: 4cc1741a     	ld1.8h	{ v26 }, [x0], x1
    1060: 4e768400     	add.8h	v0, v0, v22
    1064: 4e778421     	add.8h	v1, v1, v23
    1068: 4e788442     	add.8h	v2, v2, v24
    106c: 4e798463     	add.8h	v3, v3, v25
    1070: 6e68475a     	ushl.8h	v26, v26, v8
    1074: 6e1c43d6     	ext.16b	v22, v30, v28, #8
    1078: 6e1e4397     	ext.16b	v23, v28, v30, #8
    107c: 6e1d43d8     	ext.16b	v24, v30, v29, #8
    1080: 6e1e43b9     	ext.16b	v25, v29, v30, #8
    1084: 6e7f875a     	sub.8h	v26, v26, v31
    1088: 4e7684c6     	add.8h	v6, v6, v22
    108c: 0e7784e7     	add.4h	v7, v7, v23
    1090: 4e788610     	add.8h	v16, v16, v24
    1094: 0e798631     	add.4h	v17, v17, v25
    1098: 4e71bb59     	addv.8h	h25, v26
    109c: 4e600b5b     	rev64.8h	v27, v26
    10a0: 4e7ebf5c     	addp.8h	v28, v26, v30
    10a4: 4e7a84a5     	add.8h	v5, v5, v26
    10a8: 6e1b437b     	ext.16b	v27, v27, v27, #8
    10ac: 0e600b9d     	rev64.4h	v29, v28
    10b0: 6e160724     	mov.h	v4[5], v25[0]
    10b4: 6e1a73d6     	ext.16b	v22, v30, v26, #14
    10b8: 6e1e7357     	ext.16b	v23, v26, v30, #14
    10bc: 4e768652     	add.8h	v18, v18, v22
    10c0: 0e778673     	add.4h	v19, v19, v23
    10c4: 6e1a63d8     	ext.16b	v24, v30, v26, #12
    10c8: 6e1e6359     	ext.16b	v25, v26, v30, #12
    10cc: 4e788694     	add.8h	v20, v20, v24
    10d0: 0e7986b5     	add.4h	v21, v21, v25
    10d4: 6e1a33d6     	ext.16b	v22, v30, v26, #6
    10d8: 6e1e3357     	ext.16b	v23, v26, v30, #6
    10dc: 6e1b33d8     	ext.16b	v24, v30, v27, #6
    10e0: 6e1e3379     	ext.16b	v25, v27, v30, #6
    10e4: 4cc1741a     	ld1.8h	{ v26 }, [x0], x1
    10e8: 4e768400     	add.8h	v0, v0, v22
    10ec: 4e778421     	add.8h	v1, v1, v23
    10f0: 4e788442     	add.8h	v2, v2, v24
    10f4: 4e798463     	add.8h	v3, v3, v25
    10f8: 6e68475a     	ushl.8h	v26, v26, v8
    10fc: 6e1c33d6     	ext.16b	v22, v30, v28, #6
    1100: 6e1e3397     	ext.16b	v23, v28, v30, #6
    1104: 6e1d33d8     	ext.16b	v24, v30, v29, #6
    1108: 6e1e33b9     	ext.16b	v25, v29, v30, #6
    110c: 6e7f875a     	sub.8h	v26, v26, v31
    1110: 4e7684c6     	add.8h	v6, v6, v22
    1114: 0e7784e7     	add.4h	v7, v7, v23
    1118: 4e788610     	add.8h	v16, v16, v24
    111c: 0e798631     	add.4h	v17, v17, v25
    1120: 4e71bb59     	addv.8h	h25, v26
    1124: 4e600b5b     	rev64.8h	v27, v26
    1128: 4e7ebf5c     	addp.8h	v28, v26, v30
    112c: 4e7a84a5     	add.8h	v5, v5, v26
    1130: 6e1b437b     	ext.16b	v27, v27, v27, #8
    1134: 0e600b9d     	rev64.4h	v29, v28
    1138: 6e1a0724     	mov.h	v4[6], v25[0]
    113c: 4e7a8652     	add.8h	v18, v18, v26
    1140: 6e1a53d8     	ext.16b	v24, v30, v26, #10
    1144: 6e1e5359     	ext.16b	v25, v26, v30, #10
    1148: 4e788694     	add.8h	v20, v20, v24
    114c: 0e7986b5     	add.4h	v21, v21, v25
    1150: 6e1a23d6     	ext.16b	v22, v30, v26, #4
    1154: 6e1e2357     	ext.16b	v23, v26, v30, #4
    1158: 6e1b23d8     	ext.16b	v24, v30, v27, #4
    115c: 6e1e2379     	ext.16b	v25, v27, v30, #4
    1160: 4cc1741a     	ld1.8h	{ v26 }, [x0], x1
    1164: 4e768400     	add.8h	v0, v0, v22
    1168: 4e778421     	add.8h	v1, v1, v23
    116c: 4e788442     	add.8h	v2, v2, v24
    1170: 4e798463     	add.8h	v3, v3, v25
    1174: 6e68475a     	ushl.8h	v26, v26, v8
    1178: 6e1c23d6     	ext.16b	v22, v30, v28, #4
    117c: 6e1e2397     	ext.16b	v23, v28, v30, #4
    1180: 6e1d23d8     	ext.16b	v24, v30, v29, #4
    1184: 6e1e23b9     	ext.16b	v25, v29, v30, #4
    1188: 6e7f875a     	sub.8h	v26, v26, v31
    118c: 4e7684c6     	add.8h	v6, v6, v22
    1190: 0e7784e7     	add.4h	v7, v7, v23
    1194: 4e788610     	add.8h	v16, v16, v24
    1198: 0e798631     	add.4h	v17, v17, v25
    119c: 4e71bb59     	addv.8h	h25, v26
    11a0: 4e600b5b     	rev64.8h	v27, v26
    11a4: 4e7ebf5c     	addp.8h	v28, v26, v30
    11a8: 4e7a84a5     	add.8h	v5, v5, v26
    11ac: 6e1b437b     	ext.16b	v27, v27, v27, #8
    11b0: 0e600b9d     	rev64.4h	v29, v28
    11b4: 6e1e0724     	mov.h	v4[7], v25[0]
    11b8: 4e7a8652     	add.8h	v18, v18, v26
    11bc: 6e1a53d8     	ext.16b	v24, v30, v26, #10
    11c0: 6e1e5359     	ext.16b	v25, v26, v30, #10
    11c4: 4e788694     	add.8h	v20, v20, v24
    11c8: 0e7986b5     	add.4h	v21, v21, v25
    11cc: 6e1a13d6     	ext.16b	v22, v30, v26, #2
    11d0: 6e1e1357     	ext.16b	v23, v26, v30, #2
    11d4: 6e1b13d8     	ext.16b	v24, v30, v27, #2
    11d8: 6e1e1379     	ext.16b	v25, v27, v30, #2
    11dc: 4e768400     	add.8h	v0, v0, v22
    11e0: 4e778421     	add.8h	v1, v1, v23
    11e4: 4e788442     	add.8h	v2, v2, v24
    11e8: 4e798463     	add.8h	v3, v3, v25
    11ec: 6e1c13d6     	ext.16b	v22, v30, v28, #2
    11f0: 6e1e1397     	ext.16b	v23, v28, v30, #2
    11f4: 6e1d13d8     	ext.16b	v24, v30, v29, #2
    11f8: 6e1e13b9     	ext.16b	v25, v29, v30, #2
    11fc: 4e7684c6     	add.8h	v6, v6, v22
    1200: 0e7784e7     	add.4h	v7, v7, v23
    1204: 4e788610     	add.8h	v16, v16, v24
    1208: 0e798631     	add.4h	v17, v17, v25
    120c: 4f03053f     	movi.4s	v31, #105
    1210: 0e64c09a     	smull.4s	v26, v4, v4
    1214: 4e64809a     	smlal2.4s	v26, v4, v4
    1218: 0e65c0bb     	smull.4s	v27, v5, v5
    121c: 4e6580bb     	smlal2.4s	v27, v5, v5
    1220: 4ebf9f5a     	mul.4s	v26, v26, v31
    1224: 4ebf9f7b     	mul.4s	v27, v27, v31
    1228: 4eb1bb44     	addv.4s	s4, v26
    122c: 4eb1bb65     	addv.4s	s5, v27
    1230: 4e600821     	rev64.8h	v1, v1
    1234: 4e600863     	rev64.8h	v3, v3
    1238: 6e015021     	ext.16b	v1, v1, v1, #10
    123c: 6e035063     	ext.16b	v3, v3, v3, #10
    1240: bd000be4     	str	s4, [sp, #8]
    1244: bd001be5     	str	s5, [sp, #24]
    1248: 90000004     	adrp	x4, 0x1000 <cdef_find_dir_16bpc_neon+0x45c>
    124c: 91000084     	add	x4, x4, #0
    1250: 4c40749f     	ld1.8h	{ v31 }, [x4]
    1254: 0e60c016     	smull.4s	v22, v0, v0
    1258: 4e60c017     	smull2.4s	v23, v0, v0
    125c: 0e618036     	smlal.4s	v22, v1, v1
    1260: 4e618037     	smlal2.4s	v23, v1, v1
    1264: 0e62c058     	smull.4s	v24, v2, v2
    1268: 4e62c059     	smull2.4s	v25, v2, v2
    126c: 0e638078     	smlal.4s	v24, v3, v3
    1270: 4e638079     	smlal2.4s	v25, v3, v3
    1274: 2f10a7fe     	ushll.4s	v30, v31, #0
    1278: 6f10a7ff     	ushll2.4s	v31, v31, #0
    127c: 4ebe9ed6     	mul.4s	v22, v22, v30
    1280: 4ebf96f6     	mla.4s	v22, v23, v31
    1284: 4ebe9f18     	mul.4s	v24, v24, v30
    1288: 4ebf9738     	mla.4s	v24, v25, v31
    128c: 4eb1bac0     	addv.4s	s0, v22
    1290: 4eb1bb02     	addv.4s	s2, v24
    1294: 90000005     	adrp	x5, 0x1000 <cdef_find_dir_16bpc_neon+0x4a8>
    1298: 910000a5     	add	x5, x5, #0
    129c: 0c4064bd     	ld1.4h	{ v29, v30, v31 }, [x5]
    12a0: bd0003e0     	str	s0, [sp]
    12a4: bd0013e2     	str	s2, [sp, #16]
    12a8: 2f10a7bd     	ushll.4s	v29, v29, #0
    12ac: 2f10a7de     	ushll.4s	v30, v30, #0
    12b0: 2f10a7ff     	ushll.4s	v31, v31, #0
    12b4: 0e66c0d6     	smull.4s	v22, v6, v6
    12b8: 4e66c0d7     	smull2.4s	v23, v6, v6
    12bc: 0e67c0f8     	smull.4s	v24, v7, v7
    12c0: 0e70c219     	smull.4s	v25, v16, v16
    12c4: 4e70c21a     	smull2.4s	v26, v16, v16
    12c8: 0e71c23b     	smull.4s	v27, v17, v17
    12cc: 4ebd9ed6     	mul.4s	v22, v22, v29
    12d0: 4ebe96f6     	mla.4s	v22, v23, v30
    12d4: 4ebf9716     	mla.4s	v22, v24, v31
    12d8: 4ebd9f39     	mul.4s	v25, v25, v29
    12dc: 4ebe9759     	mla.4s	v25, v26, v30
    12e0: 4ebf9779     	mla.4s	v25, v27, v31
    12e4: 4eb1bac6     	addv.4s	s6, v22
    12e8: 4eb1bb30     	addv.4s	s16, v25
    12ec: 0e72c256     	smull.4s	v22, v18, v18
    12f0: 4e72c257     	smull2.4s	v23, v18, v18
    12f4: 0e73c278     	smull.4s	v24, v19, v19
    12f8: 0e74c299     	smull.4s	v25, v20, v20
    12fc: 4e74c29a     	smull2.4s	v26, v20, v20
    1300: 0e75c2bb     	smull.4s	v27, v21, v21
    1304: 4ebd9ed6     	mul.4s	v22, v22, v29
    1308: 4ebe96f6     	mla.4s	v22, v23, v30
    130c: 4ebf9716     	mla.4s	v22, v24, v31
    1310: 4ebd9f39     	mul.4s	v25, v25, v29
    1314: 4ebe9759     	mla.4s	v25, v26, v30
    1318: 4ebf9779     	mla.4s	v25, v27, v31
    131c: 4eb1bad2     	addv.4s	s18, v22
    1320: 4eb1bb34     	addv.4s	s20, v25
    1324: bd0007e6     	str	s6, [sp, #4]
    1328: bd000ff0     	str	s16, [sp, #12]
    132c: 52800000     	mov	w0, #0
    1330: 0e043c01     	mov.s	w1, v0[0]
    1334: 52800023     	mov	w3, #1
    1338: bd0017f2     	str	s18, [sp, #20]
    133c: bd001ff4     	str	s20, [sp, #28]
    1340: 0e043cc4     	mov.s	w4, v6[0]
    1344: 0e043c85     	mov.s	w5, v4[0]
    1348: 6b01009f     	cmp	w4, w1
    134c: 1a80c060     	csel	w0, w3, w0, gt
    1350: 1a81c081     	csel	w1, w4, w1, gt
    1354: 11000463     	add	w3, w3, #1
    1358: 6b0100bf     	cmp	w5, w1
    135c: 0e043e04     	mov.s	w4, v16[0]
    1360: 1a80c060     	csel	w0, w3, w0, gt
    1364: 1a81c0a1     	csel	w1, w5, w1, gt
    1368: 11000463     	add	w3, w3, #1
    136c: 0e043c45     	mov.s	w5, v2[0]
    1370: 6b01009f     	cmp	w4, w1
    1374: 1a80c060     	csel	w0, w3, w0, gt
    1378: 1a81c081     	csel	w1, w4, w1, gt
    137c: 11000463     	add	w3, w3, #1
    1380: 6b0100bf     	cmp	w5, w1
    1384: 0e043e44     	mov.s	w4, v18[0]
    1388: 1a80c060     	csel	w0, w3, w0, gt
    138c: 1a81c0a1     	csel	w1, w5, w1, gt
    1390: 11000463     	add	w3, w3, #1
    1394: 0e043ca5     	mov.s	w5, v5[0]
    1398: 6b01009f     	cmp	w4, w1
    139c: 1a80c060     	csel	w0, w3, w0, gt
    13a0: 1a81c081     	csel	w1, w4, w1, gt
    13a4: 11000463     	add	w3, w3, #1
    13a8: 6b0100bf     	cmp	w5, w1
    13ac: 0e043e84     	mov.s	w4, v20[0]
    13b0: 1a80c060     	csel	w0, w3, w0, gt
    13b4: 1a81c0a1     	csel	w1, w5, w1, gt
    13b8: 11000463     	add	w3, w3, #1
    13bc: 6b01009f     	cmp	w4, w1
    13c0: 1a80c060     	csel	w0, w3, w0, gt
    13c4: 1a81c081     	csel	w1, w4, w1, gt
    13c8: 521e0003     	eor	w3, w0, #0x4
    13cc: b8635be4     	ldr	w4, [sp, w3, uxtw #2]
    13d0: 4b040021     	sub	w1, w1, w4
    13d4: 530a7c21     	lsr	w1, w1, #10
    13d8: b9000041     	str	w1, [x2]
    13dc: 910083ff     	add	sp, sp, #32
    13e0: fc4107e8     	ldr	d8, [sp], #16
    13e4: d65f03c0     	ret
